
dhrystone.riscv:     file format elf32-littleriscv


Disassembly of section .text:

40000048 <_start>:
40000048:	00000093          	addi	x1,x0,0
4000004c:	00000193          	addi	x3,x0,0
40000050:	00000213          	addi	x4,x0,0
40000054:	00000293          	addi	x5,x0,0
40000058:	00000313          	addi	x6,x0,0
4000005c:	00000393          	addi	x7,x0,0
40000060:	00000413          	addi	x8,x0,0
40000064:	00000493          	addi	x9,x0,0
40000068:	00000513          	addi	x10,x0,0
4000006c:	00000593          	addi	x11,x0,0
40000070:	00000613          	addi	x12,x0,0
40000074:	00000693          	addi	x13,x0,0
40000078:	00000713          	addi	x14,x0,0
4000007c:	00000793          	addi	x15,x0,0
40000080:	00000813          	addi	x16,x0,0
40000084:	00000893          	addi	x17,x0,0
40000088:	00000913          	addi	x18,x0,0
4000008c:	00000993          	addi	x19,x0,0
40000090:	00000a13          	addi	x20,x0,0
40000094:	00000a93          	addi	x21,x0,0
40000098:	00000b13          	addi	x22,x0,0
4000009c:	00000b93          	addi	x23,x0,0
400000a0:	00000c13          	addi	x24,x0,0
400000a4:	00000c93          	addi	x25,x0,0
400000a8:	00000d13          	addi	x26,x0,0
400000ac:	00000d93          	addi	x27,x0,0
400000b0:	00000e13          	addi	x28,x0,0
400000b4:	00000e93          	addi	x29,x0,0
400000b8:	00000f13          	addi	x30,x0,0
400000bc:	00000f93          	addi	x31,x0,0
400000c0:	00004197          	auipc	x3,0x4
400000c4:	03018193          	addi	x3,x3,48 # 400040f0 <__global_pointer$>
400000c8:	00007217          	auipc	x4,0x7
400000cc:	e2f20213          	addi	x4,x4,-465 # 40006ef7 <_end+0x3f>
400000d0:	fc027213          	andi	x4,x4,-64
400000d4:	00000513          	addi	x10,x0,0
400000d8:	00100593          	addi	x11,x0,1
400000dc:	00b57063          	bgeu	x10,x11,400000dc <_start+0x94>
400000e0:	00150113          	addi	x2,x10,1
400000e4:	00e11113          	slli	x2,x2,0xe
400000e8:	00410133          	add	x2,x2,x4
400000ec:	00e51613          	slli	x12,x10,0xe
400000f0:	00c20233          	add	x4,x4,x12
400000f4:	641020ef          	jal	x1,40002f34 <main>
400000f8:	0000006f          	jal	x0,400000f8 <_start+0xb0>

400000fc <strcmp>:
400000fc:	00b56733          	or	x14,x10,x11
40000100:	fff00393          	addi	x7,x0,-1
40000104:	00377713          	andi	x14,x14,3
40000108:	10071063          	bne	x14,x0,40000208 <strcmp+0x10c>
4000010c:	7f7f87b7          	lui	x15,0x7f7f8
40000110:	f7f78793          	addi	x15,x15,-129 # 7f7f7f7f <_end+0x3f7f10c7>
40000114:	00052603          	lw	x12,0(x10)
40000118:	0005a683          	lw	x13,0(x11)
4000011c:	00f672b3          	and	x5,x12,x15
40000120:	00f66333          	or	x6,x12,x15
40000124:	00f282b3          	add	x5,x5,x15
40000128:	0062e2b3          	or	x5,x5,x6
4000012c:	10729263          	bne	x5,x7,40000230 <strcmp+0x134>
40000130:	08d61663          	bne	x12,x13,400001bc <strcmp+0xc0>
40000134:	00452603          	lw	x12,4(x10)
40000138:	0045a683          	lw	x13,4(x11)
4000013c:	00f672b3          	and	x5,x12,x15
40000140:	00f66333          	or	x6,x12,x15
40000144:	00f282b3          	add	x5,x5,x15
40000148:	0062e2b3          	or	x5,x5,x6
4000014c:	0c729e63          	bne	x5,x7,40000228 <strcmp+0x12c>
40000150:	06d61663          	bne	x12,x13,400001bc <strcmp+0xc0>
40000154:	00852603          	lw	x12,8(x10)
40000158:	0085a683          	lw	x13,8(x11)
4000015c:	00f672b3          	and	x5,x12,x15
40000160:	00f66333          	or	x6,x12,x15
40000164:	00f282b3          	add	x5,x5,x15
40000168:	0062e2b3          	or	x5,x5,x6
4000016c:	0c729863          	bne	x5,x7,4000023c <strcmp+0x140>
40000170:	04d61663          	bne	x12,x13,400001bc <strcmp+0xc0>
40000174:	00c52603          	lw	x12,12(x10)
40000178:	00c5a683          	lw	x13,12(x11)
4000017c:	00f672b3          	and	x5,x12,x15
40000180:	00f66333          	or	x6,x12,x15
40000184:	00f282b3          	add	x5,x5,x15
40000188:	0062e2b3          	or	x5,x5,x6
4000018c:	0c729263          	bne	x5,x7,40000250 <strcmp+0x154>
40000190:	02d61663          	bne	x12,x13,400001bc <strcmp+0xc0>
40000194:	01052603          	lw	x12,16(x10)
40000198:	0105a683          	lw	x13,16(x11)
4000019c:	00f672b3          	and	x5,x12,x15
400001a0:	00f66333          	or	x6,x12,x15
400001a4:	00f282b3          	add	x5,x5,x15
400001a8:	0062e2b3          	or	x5,x5,x6
400001ac:	0a729c63          	bne	x5,x7,40000264 <strcmp+0x168>
400001b0:	01450513          	addi	x10,x10,20
400001b4:	01458593          	addi	x11,x11,20
400001b8:	f4d60ee3          	beq	x12,x13,40000114 <strcmp+0x18>
400001bc:	01061713          	slli	x14,x12,0x10
400001c0:	01069793          	slli	x15,x13,0x10
400001c4:	00f71e63          	bne	x14,x15,400001e0 <strcmp+0xe4>
400001c8:	01065713          	srli	x14,x12,0x10
400001cc:	0106d793          	srli	x15,x13,0x10
400001d0:	40f70533          	sub	x10,x14,x15
400001d4:	0ff57593          	andi	x11,x10,255
400001d8:	02059063          	bne	x11,x0,400001f8 <strcmp+0xfc>
400001dc:	00008067          	jalr	x0,0(x1)
400001e0:	01075713          	srli	x14,x14,0x10
400001e4:	0107d793          	srli	x15,x15,0x10
400001e8:	40f70533          	sub	x10,x14,x15
400001ec:	0ff57593          	andi	x11,x10,255
400001f0:	00059463          	bne	x11,x0,400001f8 <strcmp+0xfc>
400001f4:	00008067          	jalr	x0,0(x1)
400001f8:	0ff77713          	andi	x14,x14,255
400001fc:	0ff7f793          	andi	x15,x15,255
40000200:	40f70533          	sub	x10,x14,x15
40000204:	00008067          	jalr	x0,0(x1)
40000208:	00054603          	lbu	x12,0(x10)
4000020c:	0005c683          	lbu	x13,0(x11)
40000210:	00150513          	addi	x10,x10,1
40000214:	00158593          	addi	x11,x11,1
40000218:	00d61463          	bne	x12,x13,40000220 <strcmp+0x124>
4000021c:	fe0616e3          	bne	x12,x0,40000208 <strcmp+0x10c>
40000220:	40d60533          	sub	x10,x12,x13
40000224:	00008067          	jalr	x0,0(x1)
40000228:	00450513          	addi	x10,x10,4
4000022c:	00458593          	addi	x11,x11,4
40000230:	fcd61ce3          	bne	x12,x13,40000208 <strcmp+0x10c>
40000234:	00000513          	addi	x10,x0,0
40000238:	00008067          	jalr	x0,0(x1)
4000023c:	00850513          	addi	x10,x10,8
40000240:	00858593          	addi	x11,x11,8
40000244:	fcd612e3          	bne	x12,x13,40000208 <strcmp+0x10c>
40000248:	00000513          	addi	x10,x0,0
4000024c:	00008067          	jalr	x0,0(x1)
40000250:	00c50513          	addi	x10,x10,12
40000254:	00c58593          	addi	x11,x11,12
40000258:	fad618e3          	bne	x12,x13,40000208 <strcmp+0x10c>
4000025c:	00000513          	addi	x10,x0,0
40000260:	00008067          	jalr	x0,0(x1)
40000264:	01050513          	addi	x10,x10,16
40000268:	01058593          	addi	x11,x11,16
4000026c:	f8d61ee3          	bne	x12,x13,40000208 <strcmp+0x10c>
40000270:	00000513          	addi	x10,x0,0
40000274:	00008067          	jalr	x0,0(x1)

40000278 <__divdf3>:
40000278:	fd010113          	addi	x2,x2,-48
4000027c:	01712623          	sw	x23,12(x2)
40000280:	00060b93          	addi	x23,x12,0
40000284:	0145d613          	srli	x12,x11,0x14
40000288:	02812423          	sw	x8,40(x2)
4000028c:	03212023          	sw	x18,32(x2)
40000290:	01312e23          	sw	x19,28(x2)
40000294:	01612823          	sw	x22,16(x2)
40000298:	00c59413          	slli	x8,x11,0xc
4000029c:	02112623          	sw	x1,44(x2)
400002a0:	02912223          	sw	x9,36(x2)
400002a4:	01412c23          	sw	x20,24(x2)
400002a8:	01512a23          	sw	x21,20(x2)
400002ac:	7ff67613          	andi	x12,x12,2047
400002b0:	00050b13          	addi	x22,x10,0
400002b4:	00068913          	addi	x18,x13,0
400002b8:	00c45413          	srli	x8,x8,0xc
400002bc:	01f5d993          	srli	x19,x11,0x1f
400002c0:	08060e63          	beq	x12,x0,4000035c <__divdf3+0xe4>
400002c4:	7ff00793          	addi	x15,x0,2047
400002c8:	0ef60e63          	beq	x12,x15,400003c4 <__divdf3+0x14c>
400002cc:	01d55693          	srli	x13,x10,0x1d
400002d0:	00341413          	slli	x8,x8,0x3
400002d4:	0086e6b3          	or	x13,x13,x8
400002d8:	008007b7          	lui	x15,0x800
400002dc:	00f6ea33          	or	x20,x13,x15
400002e0:	00351493          	slli	x9,x10,0x3
400002e4:	c0160a93          	addi	x21,x12,-1023
400002e8:	00000b13          	addi	x22,x0,0
400002ec:	01495793          	srli	x15,x18,0x14
400002f0:	00c91413          	slli	x8,x18,0xc
400002f4:	7ff7f793          	andi	x15,x15,2047
400002f8:	00c45413          	srli	x8,x8,0xc
400002fc:	01f95913          	srli	x18,x18,0x1f
40000300:	10078063          	beq	x15,x0,40000400 <__divdf3+0x188>
40000304:	7ff00713          	addi	x14,x0,2047
40000308:	16e78463          	beq	x15,x14,40000470 <__divdf3+0x1f8>
4000030c:	00341413          	slli	x8,x8,0x3
40000310:	01dbd713          	srli	x14,x23,0x1d
40000314:	00876733          	or	x14,x14,x8
40000318:	00800437          	lui	x8,0x800
4000031c:	00876433          	or	x8,x14,x8
40000320:	003b9f13          	slli	x30,x23,0x3
40000324:	c0178693          	addi	x13,x15,-1023 # 7ffc01 <__heap_size+0x7fec01>
40000328:	00000593          	addi	x11,x0,0
4000032c:	002b1793          	slli	x15,x22,0x2
40000330:	00b7e7b3          	or	x15,x15,x11
40000334:	40da8633          	sub	x12,x21,x13
40000338:	fff78793          	addi	x15,x15,-1
4000033c:	00e00693          	addi	x13,x0,14
40000340:	0129c733          	xor	x14,x19,x18
40000344:	18f6ea63          	bltu	x13,x15,400004d8 <__divdf3+0x260>
40000348:	00279793          	slli	x15,x15,0x2
4000034c:	04018693          	addi	x13,x3,64 # 40004130 <__global_pointer$+0x40>
40000350:	00d787b3          	add	x15,x15,x13
40000354:	0007a783          	lw	x15,0(x15)
40000358:	00078067          	jalr	x0,0(x15)
4000035c:	00a46a33          	or	x20,x8,x10
40000360:	080a0063          	beq	x20,x0,400003e0 <__divdf3+0x168>
40000364:	02040e63          	beq	x8,x0,400003a0 <__divdf3+0x128>
40000368:	00040513          	addi	x10,x8,0 # 800000 <__heap_size+0x7ff000>
4000036c:	635000ef          	jal	x1,400011a0 <__clzsi2>
40000370:	ff550793          	addi	x15,x10,-11
40000374:	01d00693          	addi	x13,x0,29
40000378:	ff850713          	addi	x14,x10,-8
4000037c:	40f686b3          	sub	x13,x13,x15
40000380:	00e41433          	sll	x8,x8,x14
40000384:	00db56b3          	srl	x13,x22,x13
40000388:	0086ea33          	or	x20,x13,x8
4000038c:	00eb1433          	sll	x8,x22,x14
40000390:	c0d00613          	addi	x12,x0,-1011
40000394:	40a60ab3          	sub	x21,x12,x10
40000398:	00040493          	addi	x9,x8,0
4000039c:	f4dff06f          	jal	x0,400002e8 <__divdf3+0x70>
400003a0:	601000ef          	jal	x1,400011a0 <__clzsi2>
400003a4:	00050a13          	addi	x20,x10,0
400003a8:	015a0793          	addi	x15,x20,21
400003ac:	01c00713          	addi	x14,x0,28
400003b0:	02050513          	addi	x10,x10,32
400003b4:	fcf750e3          	bge	x14,x15,40000374 <__divdf3+0xfc>
400003b8:	ff8a0a13          	addi	x20,x20,-8
400003bc:	014b1a33          	sll	x20,x22,x20
400003c0:	fd1ff06f          	jal	x0,40000390 <__divdf3+0x118>
400003c4:	00a46a33          	or	x20,x8,x10
400003c8:	020a0463          	beq	x20,x0,400003f0 <__divdf3+0x178>
400003cc:	00050493          	addi	x9,x10,0
400003d0:	00040a13          	addi	x20,x8,0
400003d4:	7ff00a93          	addi	x21,x0,2047
400003d8:	00300b13          	addi	x22,x0,3
400003dc:	f11ff06f          	jal	x0,400002ec <__divdf3+0x74>
400003e0:	00000493          	addi	x9,x0,0
400003e4:	00000a93          	addi	x21,x0,0
400003e8:	00100b13          	addi	x22,x0,1
400003ec:	f01ff06f          	jal	x0,400002ec <__divdf3+0x74>
400003f0:	00000493          	addi	x9,x0,0
400003f4:	7ff00a93          	addi	x21,x0,2047
400003f8:	00200b13          	addi	x22,x0,2
400003fc:	ef1ff06f          	jal	x0,400002ec <__divdf3+0x74>
40000400:	01746f33          	or	x30,x8,x23
40000404:	080f0263          	beq	x30,x0,40000488 <__divdf3+0x210>
40000408:	04040063          	beq	x8,x0,40000448 <__divdf3+0x1d0>
4000040c:	00040513          	addi	x10,x8,0
40000410:	591000ef          	jal	x1,400011a0 <__clzsi2>
40000414:	ff550713          	addi	x14,x10,-11
40000418:	01d00793          	addi	x15,x0,29
4000041c:	ff850693          	addi	x13,x10,-8
40000420:	40e787b3          	sub	x15,x15,x14
40000424:	00d41433          	sll	x8,x8,x13
40000428:	00fbd7b3          	srl	x15,x23,x15
4000042c:	0087e7b3          	or	x15,x15,x8
40000430:	00db9433          	sll	x8,x23,x13
40000434:	c0d00693          	addi	x13,x0,-1011
40000438:	00040f13          	addi	x30,x8,0
4000043c:	40a686b3          	sub	x13,x13,x10
40000440:	00078413          	addi	x8,x15,0
40000444:	ee5ff06f          	jal	x0,40000328 <__divdf3+0xb0>
40000448:	000b8513          	addi	x10,x23,0
4000044c:	555000ef          	jal	x1,400011a0 <__clzsi2>
40000450:	00050793          	addi	x15,x10,0
40000454:	01578713          	addi	x14,x15,21
40000458:	01c00693          	addi	x13,x0,28
4000045c:	02050513          	addi	x10,x10,32
40000460:	fae6dce3          	bge	x13,x14,40000418 <__divdf3+0x1a0>
40000464:	ff878793          	addi	x15,x15,-8
40000468:	00fb97b3          	sll	x15,x23,x15
4000046c:	fc9ff06f          	jal	x0,40000434 <__divdf3+0x1bc>
40000470:	01746f33          	or	x30,x8,x23
40000474:	020f0263          	beq	x30,x0,40000498 <__divdf3+0x220>
40000478:	000b8f13          	addi	x30,x23,0
4000047c:	7ff00693          	addi	x13,x0,2047
40000480:	00300593          	addi	x11,x0,3
40000484:	ea9ff06f          	jal	x0,4000032c <__divdf3+0xb4>
40000488:	00000413          	addi	x8,x0,0
4000048c:	00000693          	addi	x13,x0,0
40000490:	00100593          	addi	x11,x0,1
40000494:	e99ff06f          	jal	x0,4000032c <__divdf3+0xb4>
40000498:	00000413          	addi	x8,x0,0
4000049c:	7ff00693          	addi	x13,x0,2047
400004a0:	00200593          	addi	x11,x0,2
400004a4:	e89ff06f          	jal	x0,4000032c <__divdf3+0xb4>
400004a8:	00098713          	addi	x14,x19,0
400004ac:	000a0413          	addi	x8,x20,0
400004b0:	00048f13          	addi	x30,x9,0
400004b4:	00200793          	addi	x15,x0,2
400004b8:	46fb0263          	beq	x22,x15,4000091c <__divdf3+0x6a4>
400004bc:	00300793          	addi	x15,x0,3
400004c0:	44fb0463          	beq	x22,x15,40000908 <__divdf3+0x690>
400004c4:	00100793          	addi	x15,x0,1
400004c8:	2cfb1263          	bne	x22,x15,4000078c <__divdf3+0x514>
400004cc:	00000413          	addi	x8,x0,0
400004d0:	00000693          	addi	x13,x0,0
400004d4:	3f80006f          	jal	x0,400008cc <__divdf3+0x654>
400004d8:	01446663          	bltu	x8,x20,400004e4 <__divdf3+0x26c>
400004dc:	348a1e63          	bne	x20,x8,40000838 <__divdf3+0x5c0>
400004e0:	35e4ec63          	bltu	x9,x30,40000838 <__divdf3+0x5c0>
400004e4:	01fa1693          	slli	x13,x20,0x1f
400004e8:	0014d793          	srli	x15,x9,0x1
400004ec:	01f49313          	slli	x6,x9,0x1f
400004f0:	001a5a13          	srli	x20,x20,0x1
400004f4:	00f6e4b3          	or	x9,x13,x15
400004f8:	00841413          	slli	x8,x8,0x8
400004fc:	01045893          	srli	x17,x8,0x10
40000500:	031a5eb3          	divu	x29,x20,x17
40000504:	018f5593          	srli	x11,x30,0x18
40000508:	0085e5b3          	or	x11,x11,x8
4000050c:	01059813          	slli	x16,x11,0x10
40000510:	01085813          	srli	x16,x16,0x10
40000514:	0104d793          	srli	x15,x9,0x10
40000518:	008f1513          	slli	x10,x30,0x8
4000051c:	031a76b3          	remu	x13,x20,x17
40000520:	03d80e33          	mul	x28,x16,x29
40000524:	01069693          	slli	x13,x13,0x10
40000528:	00d7e7b3          	or	x15,x15,x13
4000052c:	000e8693          	addi	x13,x29,0
40000530:	01c7fe63          	bgeu	x15,x28,4000054c <__divdf3+0x2d4>
40000534:	00f587b3          	add	x15,x11,x15
40000538:	fffe8693          	addi	x13,x29,-1
4000053c:	00b7e863          	bltu	x15,x11,4000054c <__divdf3+0x2d4>
40000540:	01c7f663          	bgeu	x15,x28,4000054c <__divdf3+0x2d4>
40000544:	ffee8693          	addi	x13,x29,-2
40000548:	00b787b3          	add	x15,x15,x11
4000054c:	41c787b3          	sub	x15,x15,x28
40000550:	0317deb3          	divu	x29,x15,x17
40000554:	01049493          	slli	x9,x9,0x10
40000558:	0104d493          	srli	x9,x9,0x10
4000055c:	0317f7b3          	remu	x15,x15,x17
40000560:	03d80e33          	mul	x28,x16,x29
40000564:	01079793          	slli	x15,x15,0x10
40000568:	00f4e4b3          	or	x9,x9,x15
4000056c:	000e8793          	addi	x15,x29,0
40000570:	01c4fe63          	bgeu	x9,x28,4000058c <__divdf3+0x314>
40000574:	009584b3          	add	x9,x11,x9
40000578:	fffe8793          	addi	x15,x29,-1
4000057c:	00b4e863          	bltu	x9,x11,4000058c <__divdf3+0x314>
40000580:	01c4f663          	bgeu	x9,x28,4000058c <__divdf3+0x314>
40000584:	ffee8793          	addi	x15,x29,-2
40000588:	00b484b3          	add	x9,x9,x11
4000058c:	01069693          	slli	x13,x13,0x10
40000590:	000103b7          	lui	x7,0x10
40000594:	00f6efb3          	or	x31,x13,x15
40000598:	41c484b3          	sub	x9,x9,x28
4000059c:	fff38e13          	addi	x28,x7,-1 # ffff <__heap_size+0xefff>
400005a0:	01cff7b3          	and	x15,x31,x28
400005a4:	010fdf13          	srli	x30,x31,0x10
400005a8:	01055e93          	srli	x29,x10,0x10
400005ac:	01c57e33          	and	x28,x10,x28
400005b0:	02fe02b3          	mul	x5,x28,x15
400005b4:	03cf0433          	mul	x8,x30,x28
400005b8:	0102d693          	srli	x13,x5,0x10
400005bc:	02fe87b3          	mul	x15,x29,x15
400005c0:	008787b3          	add	x15,x15,x8
400005c4:	00f686b3          	add	x13,x13,x15
400005c8:	03df0f33          	mul	x30,x30,x29
400005cc:	0086f463          	bgeu	x13,x8,400005d4 <__divdf3+0x35c>
400005d0:	007f0f33          	add	x30,x30,x7
400005d4:	0106d793          	srli	x15,x13,0x10
400005d8:	01e787b3          	add	x15,x15,x30
400005dc:	00010f37          	lui	x30,0x10
400005e0:	ffff0f13          	addi	x30,x30,-1 # ffff <__heap_size+0xefff>
400005e4:	01e6f6b3          	and	x13,x13,x30
400005e8:	01069693          	slli	x13,x13,0x10
400005ec:	01e2f2b3          	and	x5,x5,x30
400005f0:	005686b3          	add	x13,x13,x5
400005f4:	00f4e863          	bltu	x9,x15,40000604 <__divdf3+0x38c>
400005f8:	000f8413          	addi	x8,x31,0
400005fc:	04f49863          	bne	x9,x15,4000064c <__divdf3+0x3d4>
40000600:	04d37663          	bgeu	x6,x13,4000064c <__divdf3+0x3d4>
40000604:	00a30f33          	add	x30,x6,x10
40000608:	006f32b3          	sltu	x5,x30,x6
4000060c:	00b283b3          	add	x7,x5,x11
40000610:	007484b3          	add	x9,x9,x7
40000614:	ffff8413          	addi	x8,x31,-1
40000618:	000f0313          	addi	x6,x30,0
4000061c:	0095e663          	bltu	x11,x9,40000628 <__divdf3+0x3b0>
40000620:	02959663          	bne	x11,x9,4000064c <__divdf3+0x3d4>
40000624:	02029463          	bne	x5,x0,4000064c <__divdf3+0x3d4>
40000628:	00f4e663          	bltu	x9,x15,40000634 <__divdf3+0x3bc>
4000062c:	02979063          	bne	x15,x9,4000064c <__divdf3+0x3d4>
40000630:	00df7e63          	bgeu	x30,x13,4000064c <__divdf3+0x3d4>
40000634:	01e50f33          	add	x30,x10,x30
40000638:	000f0313          	addi	x6,x30,0
4000063c:	00af3f33          	sltu	x30,x30,x10
40000640:	00bf0f33          	add	x30,x30,x11
40000644:	ffef8413          	addi	x8,x31,-2
40000648:	01e484b3          	add	x9,x9,x30
4000064c:	40d306b3          	sub	x13,x6,x13
40000650:	40f484b3          	sub	x9,x9,x15
40000654:	00d33333          	sltu	x6,x6,x13
40000658:	406484b3          	sub	x9,x9,x6
4000065c:	fff00f13          	addi	x30,x0,-1
40000660:	12958663          	beq	x11,x9,4000078c <__divdf3+0x514>
40000664:	0314dfb3          	divu	x31,x9,x17
40000668:	0106d793          	srli	x15,x13,0x10
4000066c:	0314f4b3          	remu	x9,x9,x17
40000670:	000f8313          	addi	x6,x31,0
40000674:	03f80f33          	mul	x30,x16,x31
40000678:	01049493          	slli	x9,x9,0x10
4000067c:	0097e7b3          	or	x15,x15,x9
40000680:	01e7fe63          	bgeu	x15,x30,4000069c <__divdf3+0x424>
40000684:	00f587b3          	add	x15,x11,x15
40000688:	ffff8313          	addi	x6,x31,-1
4000068c:	00b7e863          	bltu	x15,x11,4000069c <__divdf3+0x424>
40000690:	01e7f663          	bgeu	x15,x30,4000069c <__divdf3+0x424>
40000694:	ffef8313          	addi	x6,x31,-2
40000698:	00b787b3          	add	x15,x15,x11
4000069c:	41e787b3          	sub	x15,x15,x30
400006a0:	0317df33          	divu	x30,x15,x17
400006a4:	01069693          	slli	x13,x13,0x10
400006a8:	0106d693          	srli	x13,x13,0x10
400006ac:	0317f7b3          	remu	x15,x15,x17
400006b0:	03e80833          	mul	x16,x16,x30
400006b4:	01079793          	slli	x15,x15,0x10
400006b8:	00f6e7b3          	or	x15,x13,x15
400006bc:	000f0693          	addi	x13,x30,0
400006c0:	0107fe63          	bgeu	x15,x16,400006dc <__divdf3+0x464>
400006c4:	00f587b3          	add	x15,x11,x15
400006c8:	ffff0693          	addi	x13,x30,-1
400006cc:	00b7e863          	bltu	x15,x11,400006dc <__divdf3+0x464>
400006d0:	0107f663          	bgeu	x15,x16,400006dc <__divdf3+0x464>
400006d4:	ffef0693          	addi	x13,x30,-2
400006d8:	00b787b3          	add	x15,x15,x11
400006dc:	01031313          	slli	x6,x6,0x10
400006e0:	00d36333          	or	x6,x6,x13
400006e4:	01031693          	slli	x13,x6,0x10
400006e8:	0106d693          	srli	x13,x13,0x10
400006ec:	01035893          	srli	x17,x6,0x10
400006f0:	03c68f33          	mul	x30,x13,x28
400006f4:	410787b3          	sub	x15,x15,x16
400006f8:	03c88e33          	mul	x28,x17,x28
400006fc:	031e88b3          	mul	x17,x29,x17
40000700:	02de8eb3          	mul	x29,x29,x13
40000704:	010f5693          	srli	x13,x30,0x10
40000708:	01ce8eb3          	add	x29,x29,x28
4000070c:	01d686b3          	add	x13,x13,x29
40000710:	01c6f663          	bgeu	x13,x28,4000071c <__divdf3+0x4a4>
40000714:	00010837          	lui	x16,0x10
40000718:	010888b3          	add	x17,x17,x16
4000071c:	0106d813          	srli	x16,x13,0x10
40000720:	01180833          	add	x16,x16,x17
40000724:	000108b7          	lui	x17,0x10
40000728:	fff88893          	addi	x17,x17,-1 # ffff <__heap_size+0xefff>
4000072c:	0116f6b3          	and	x13,x13,x17
40000730:	01069693          	slli	x13,x13,0x10
40000734:	011f7f33          	and	x30,x30,x17
40000738:	01e686b3          	add	x13,x13,x30
4000073c:	0107e863          	bltu	x15,x16,4000074c <__divdf3+0x4d4>
40000740:	00030f13          	addi	x30,x6,0
40000744:	05079263          	bne	x15,x16,40000788 <__divdf3+0x510>
40000748:	04068263          	beq	x13,x0,4000078c <__divdf3+0x514>
4000074c:	00f587b3          	add	x15,x11,x15
40000750:	fff30f13          	addi	x30,x6,-1
40000754:	00078893          	addi	x17,x15,0
40000758:	02b7e463          	bltu	x15,x11,40000780 <__divdf3+0x508>
4000075c:	0107e663          	bltu	x15,x16,40000768 <__divdf3+0x4f0>
40000760:	03079463          	bne	x15,x16,40000788 <__divdf3+0x510>
40000764:	02d57063          	bgeu	x10,x13,40000784 <__divdf3+0x50c>
40000768:	ffe30f13          	addi	x30,x6,-2
4000076c:	00151313          	slli	x6,x10,0x1
40000770:	00a338b3          	sltu	x17,x6,x10
40000774:	00b888b3          	add	x17,x17,x11
40000778:	011788b3          	add	x17,x15,x17
4000077c:	00030513          	addi	x10,x6,0
40000780:	01089463          	bne	x17,x16,40000788 <__divdf3+0x510>
40000784:	00a68463          	beq	x13,x10,4000078c <__divdf3+0x514>
40000788:	001f6f13          	ori	x30,x30,1
4000078c:	3ff60793          	addi	x15,x12,1023
40000790:	0cf05063          	bge	x0,x15,40000850 <__divdf3+0x5d8>
40000794:	007f7693          	andi	x13,x30,7
40000798:	02068063          	beq	x13,x0,400007b8 <__divdf3+0x540>
4000079c:	00ff7693          	andi	x13,x30,15
400007a0:	00400593          	addi	x11,x0,4
400007a4:	00b68a63          	beq	x13,x11,400007b8 <__divdf3+0x540>
400007a8:	004f0693          	addi	x13,x30,4
400007ac:	01e6b5b3          	sltu	x11,x13,x30
400007b0:	00b40433          	add	x8,x8,x11
400007b4:	00068f13          	addi	x30,x13,0
400007b8:	010006b7          	lui	x13,0x1000
400007bc:	00d476b3          	and	x13,x8,x13
400007c0:	00068a63          	beq	x13,x0,400007d4 <__divdf3+0x55c>
400007c4:	ff0007b7          	lui	x15,0xff000
400007c8:	fff78793          	addi	x15,x15,-1 # feffffff <_end+0xbeff9147>
400007cc:	00f47433          	and	x8,x8,x15
400007d0:	40060793          	addi	x15,x12,1024
400007d4:	7fe00693          	addi	x13,x0,2046
400007d8:	14f6c263          	blt	x13,x15,4000091c <__divdf3+0x6a4>
400007dc:	01d41693          	slli	x13,x8,0x1d
400007e0:	003f5f13          	srli	x30,x30,0x3
400007e4:	01e6e6b3          	or	x13,x13,x30
400007e8:	00345413          	srli	x8,x8,0x3
400007ec:	00c41413          	slli	x8,x8,0xc
400007f0:	00c45413          	srli	x8,x8,0xc
400007f4:	01479793          	slli	x15,x15,0x14
400007f8:	02c12083          	lw	x1,44(x2)
400007fc:	0087e7b3          	or	x15,x15,x8
40000800:	02812403          	lw	x8,40(x2)
40000804:	01f71713          	slli	x14,x14,0x1f
40000808:	00e7e633          	or	x12,x15,x14
4000080c:	02412483          	lw	x9,36(x2)
40000810:	02012903          	lw	x18,32(x2)
40000814:	01c12983          	lw	x19,28(x2)
40000818:	01812a03          	lw	x20,24(x2)
4000081c:	01412a83          	lw	x21,20(x2)
40000820:	01012b03          	lw	x22,16(x2)
40000824:	00c12b83          	lw	x23,12(x2)
40000828:	00068513          	addi	x10,x13,0 # 1000000 <__heap_size+0xfff000>
4000082c:	00060593          	addi	x11,x12,0
40000830:	03010113          	addi	x2,x2,48
40000834:	00008067          	jalr	x0,0(x1)
40000838:	fff60613          	addi	x12,x12,-1
4000083c:	00000313          	addi	x6,x0,0
40000840:	cb9ff06f          	jal	x0,400004f8 <__divdf3+0x280>
40000844:	00090713          	addi	x14,x18,0
40000848:	00058b13          	addi	x22,x11,0
4000084c:	c69ff06f          	jal	x0,400004b4 <__divdf3+0x23c>
40000850:	00100593          	addi	x11,x0,1
40000854:	00078c63          	beq	x15,x0,4000086c <__divdf3+0x5f4>
40000858:	40f585b3          	sub	x11,x11,x15
4000085c:	03800693          	addi	x13,x0,56
40000860:	c6b6c6e3          	blt	x13,x11,400004cc <__divdf3+0x254>
40000864:	01f00693          	addi	x13,x0,31
40000868:	06b6c663          	blt	x13,x11,400008d4 <__divdf3+0x65c>
4000086c:	41e60613          	addi	x12,x12,1054
40000870:	00bf57b3          	srl	x15,x30,x11
40000874:	00cf1f33          	sll	x30,x30,x12
40000878:	01e03f33          	sltu	x30,x0,x30
4000087c:	00c41633          	sll	x12,x8,x12
40000880:	00cf6f33          	or	x30,x30,x12
40000884:	01e7e7b3          	or	x15,x15,x30
40000888:	00b45433          	srl	x8,x8,x11
4000088c:	0077f693          	andi	x13,x15,7
40000890:	02068063          	beq	x13,x0,400008b0 <__divdf3+0x638>
40000894:	00f7f693          	andi	x13,x15,15
40000898:	00400613          	addi	x12,x0,4
4000089c:	00c68a63          	beq	x13,x12,400008b0 <__divdf3+0x638>
400008a0:	00478693          	addi	x13,x15,4
400008a4:	00f6b633          	sltu	x12,x13,x15
400008a8:	00c40433          	add	x8,x8,x12
400008ac:	00068793          	addi	x15,x13,0
400008b0:	008006b7          	lui	x13,0x800
400008b4:	00d476b3          	and	x13,x8,x13
400008b8:	06069a63          	bne	x13,x0,4000092c <__divdf3+0x6b4>
400008bc:	01d41693          	slli	x13,x8,0x1d
400008c0:	0037d793          	srli	x15,x15,0x3
400008c4:	00f6e6b3          	or	x13,x13,x15
400008c8:	00345413          	srli	x8,x8,0x3
400008cc:	00000793          	addi	x15,x0,0
400008d0:	f1dff06f          	jal	x0,400007ec <__divdf3+0x574>
400008d4:	fe100693          	addi	x13,x0,-31
400008d8:	40f687b3          	sub	x15,x13,x15
400008dc:	02000513          	addi	x10,x0,32
400008e0:	00f457b3          	srl	x15,x8,x15
400008e4:	00000693          	addi	x13,x0,0
400008e8:	00a58663          	beq	x11,x10,400008f4 <__divdf3+0x67c>
400008ec:	43e60613          	addi	x12,x12,1086
400008f0:	00c416b3          	sll	x13,x8,x12
400008f4:	01e6e6b3          	or	x13,x13,x30
400008f8:	00d036b3          	sltu	x13,x0,x13
400008fc:	00d7e7b3          	or	x15,x15,x13
40000900:	00000413          	addi	x8,x0,0
40000904:	f89ff06f          	jal	x0,4000088c <__divdf3+0x614>
40000908:	00080437          	lui	x8,0x80
4000090c:	00000693          	addi	x13,x0,0
40000910:	7ff00793          	addi	x15,x0,2047
40000914:	00000713          	addi	x14,x0,0
40000918:	ed5ff06f          	jal	x0,400007ec <__divdf3+0x574>
4000091c:	00000413          	addi	x8,x0,0
40000920:	00000693          	addi	x13,x0,0
40000924:	7ff00793          	addi	x15,x0,2047
40000928:	ec5ff06f          	jal	x0,400007ec <__divdf3+0x574>
4000092c:	00000413          	addi	x8,x0,0
40000930:	00000693          	addi	x13,x0,0
40000934:	00100793          	addi	x15,x0,1
40000938:	eb5ff06f          	jal	x0,400007ec <__divdf3+0x574>

4000093c <__floatunsidf>:
4000093c:	ff010113          	addi	x2,x2,-16
40000940:	00812423          	sw	x8,8(x2)
40000944:	00112623          	sw	x1,12(x2)
40000948:	00050413          	addi	x8,x10,0
4000094c:	06050263          	beq	x10,x0,400009b0 <__floatunsidf+0x74>
40000950:	051000ef          	jal	x1,400011a0 <__clzsi2>
40000954:	41e00713          	addi	x14,x0,1054
40000958:	00a00793          	addi	x15,x0,10
4000095c:	40a70733          	sub	x14,x14,x10
40000960:	04a7c063          	blt	x15,x10,400009a0 <__floatunsidf+0x64>
40000964:	00b00793          	addi	x15,x0,11
40000968:	40a787b3          	sub	x15,x15,x10
4000096c:	01550513          	addi	x10,x10,21
40000970:	00f457b3          	srl	x15,x8,x15
40000974:	00a41433          	sll	x8,x8,x10
40000978:	00c12083          	lw	x1,12(x2)
4000097c:	00040513          	addi	x10,x8,0 # 80000 <__heap_size+0x7f000>
40000980:	00c79793          	slli	x15,x15,0xc
40000984:	00812403          	lw	x8,8(x2)
40000988:	01471713          	slli	x14,x14,0x14
4000098c:	00c7d793          	srli	x15,x15,0xc
40000990:	00f766b3          	or	x13,x14,x15
40000994:	00068593          	addi	x11,x13,0 # 800000 <__heap_size+0x7ff000>
40000998:	01010113          	addi	x2,x2,16
4000099c:	00008067          	jalr	x0,0(x1)
400009a0:	ff550513          	addi	x10,x10,-11
400009a4:	00a417b3          	sll	x15,x8,x10
400009a8:	00000413          	addi	x8,x0,0
400009ac:	fcdff06f          	jal	x0,40000978 <__floatunsidf+0x3c>
400009b0:	00000793          	addi	x15,x0,0
400009b4:	00000713          	addi	x14,x0,0
400009b8:	fc1ff06f          	jal	x0,40000978 <__floatunsidf+0x3c>

400009bc <__divsf3>:
400009bc:	fe010113          	addi	x2,x2,-32
400009c0:	00912a23          	sw	x9,20(x2)
400009c4:	01755493          	srli	x9,x10,0x17
400009c8:	01212823          	sw	x18,16(x2)
400009cc:	01312623          	sw	x19,12(x2)
400009d0:	01412423          	sw	x20,8(x2)
400009d4:	00951713          	slli	x14,x10,0x9
400009d8:	00112e23          	sw	x1,28(x2)
400009dc:	00812c23          	sw	x8,24(x2)
400009e0:	01512223          	sw	x21,4(x2)
400009e4:	0ff4f493          	andi	x9,x9,255
400009e8:	00058a13          	addi	x20,x11,0
400009ec:	00975993          	srli	x19,x14,0x9
400009f0:	01f55913          	srli	x18,x10,0x1f
400009f4:	08048263          	beq	x9,x0,40000a78 <__divsf3+0xbc>
400009f8:	0ff00793          	addi	x15,x0,255
400009fc:	08f48e63          	beq	x9,x15,40000a98 <__divsf3+0xdc>
40000a00:	00399713          	slli	x14,x19,0x3
40000a04:	040007b7          	lui	x15,0x4000
40000a08:	00f769b3          	or	x19,x14,x15
40000a0c:	f8148493          	addi	x9,x9,-127
40000a10:	00000a93          	addi	x21,x0,0
40000a14:	017a5793          	srli	x15,x20,0x17
40000a18:	009a1413          	slli	x8,x20,0x9
40000a1c:	0ff7f793          	andi	x15,x15,255
40000a20:	00945413          	srli	x8,x8,0x9
40000a24:	01fa5a13          	srli	x20,x20,0x1f
40000a28:	08078863          	beq	x15,x0,40000ab8 <__divsf3+0xfc>
40000a2c:	0ff00713          	addi	x14,x0,255
40000a30:	0ae78463          	beq	x15,x14,40000ad8 <__divsf3+0x11c>
40000a34:	00341413          	slli	x8,x8,0x3
40000a38:	04000737          	lui	x14,0x4000
40000a3c:	00e46433          	or	x8,x8,x14
40000a40:	f8178793          	addi	x15,x15,-127 # 3ffff81 <__heap_size+0x3ffef81>
40000a44:	00000693          	addi	x13,x0,0
40000a48:	40f484b3          	sub	x9,x9,x15
40000a4c:	002a9793          	slli	x15,x21,0x2
40000a50:	00d7e7b3          	or	x15,x15,x13
40000a54:	fff78793          	addi	x15,x15,-1
40000a58:	00e00713          	addi	x14,x0,14
40000a5c:	01494633          	xor	x12,x18,x20
40000a60:	0cf76463          	bltu	x14,x15,40000b28 <__divsf3+0x16c>
40000a64:	00279793          	slli	x15,x15,0x2
40000a68:	07c18713          	addi	x14,x3,124 # 4000416c <__global_pointer$+0x7c>
40000a6c:	00e787b3          	add	x15,x15,x14
40000a70:	0007a783          	lw	x15,0(x15)
40000a74:	00078067          	jalr	x0,0(x15)
40000a78:	02098a63          	beq	x19,x0,40000aac <__divsf3+0xf0>
40000a7c:	00098513          	addi	x10,x19,0
40000a80:	720000ef          	jal	x1,400011a0 <__clzsi2>
40000a84:	ffb50793          	addi	x15,x10,-5
40000a88:	f8a00493          	addi	x9,x0,-118
40000a8c:	00f999b3          	sll	x19,x19,x15
40000a90:	40a484b3          	sub	x9,x9,x10
40000a94:	f7dff06f          	jal	x0,40000a10 <__divsf3+0x54>
40000a98:	0ff00493          	addi	x9,x0,255
40000a9c:	00300a93          	addi	x21,x0,3
40000aa0:	f6099ae3          	bne	x19,x0,40000a14 <__divsf3+0x58>
40000aa4:	00200a93          	addi	x21,x0,2
40000aa8:	f6dff06f          	jal	x0,40000a14 <__divsf3+0x58>
40000aac:	00000493          	addi	x9,x0,0
40000ab0:	00100a93          	addi	x21,x0,1
40000ab4:	f61ff06f          	jal	x0,40000a14 <__divsf3+0x58>
40000ab8:	02040a63          	beq	x8,x0,40000aec <__divsf3+0x130>
40000abc:	00040513          	addi	x10,x8,0
40000ac0:	6e0000ef          	jal	x1,400011a0 <__clzsi2>
40000ac4:	ffb50793          	addi	x15,x10,-5
40000ac8:	00f41433          	sll	x8,x8,x15
40000acc:	f8a00793          	addi	x15,x0,-118
40000ad0:	40a787b3          	sub	x15,x15,x10
40000ad4:	f71ff06f          	jal	x0,40000a44 <__divsf3+0x88>
40000ad8:	0ff00793          	addi	x15,x0,255
40000adc:	00300693          	addi	x13,x0,3
40000ae0:	f60414e3          	bne	x8,x0,40000a48 <__divsf3+0x8c>
40000ae4:	00200693          	addi	x13,x0,2
40000ae8:	f61ff06f          	jal	x0,40000a48 <__divsf3+0x8c>
40000aec:	00000793          	addi	x15,x0,0
40000af0:	00100693          	addi	x13,x0,1
40000af4:	f55ff06f          	jal	x0,40000a48 <__divsf3+0x8c>
40000af8:	00090613          	addi	x12,x18,0
40000afc:	00098413          	addi	x8,x19,0
40000b00:	000a8693          	addi	x13,x21,0
40000b04:	00200793          	addi	x15,x0,2
40000b08:	1cf68a63          	beq	x13,x15,40000cdc <__divsf3+0x320>
40000b0c:	00300793          	addi	x15,x0,3
40000b10:	1af68e63          	beq	x13,x15,40000ccc <__divsf3+0x310>
40000b14:	00100793          	addi	x15,x0,1
40000b18:	0af69c63          	bne	x13,x15,40000bd0 <__divsf3+0x214>
40000b1c:	00000793          	addi	x15,x0,0
40000b20:	00000713          	addi	x14,x0,0
40000b24:	0f40006f          	jal	x0,40000c18 <__divsf3+0x25c>
40000b28:	00541593          	slli	x11,x8,0x5
40000b2c:	1289f463          	bgeu	x19,x8,40000c54 <__divsf3+0x298>
40000b30:	fff48493          	addi	x9,x9,-1
40000b34:	00000793          	addi	x15,x0,0
40000b38:	0105d513          	srli	x10,x11,0x10
40000b3c:	02a9d8b3          	divu	x17,x19,x10
40000b40:	000106b7          	lui	x13,0x10
40000b44:	fff68693          	addi	x13,x13,-1 # ffff <__heap_size+0xefff>
40000b48:	00d5f6b3          	and	x13,x11,x13
40000b4c:	0107d793          	srli	x15,x15,0x10
40000b50:	02a9f733          	remu	x14,x19,x10
40000b54:	00088413          	addi	x8,x17,0
40000b58:	03168833          	mul	x16,x13,x17
40000b5c:	01071713          	slli	x14,x14,0x10
40000b60:	00e7e7b3          	or	x15,x15,x14
40000b64:	0107fe63          	bgeu	x15,x16,40000b80 <__divsf3+0x1c4>
40000b68:	00f587b3          	add	x15,x11,x15
40000b6c:	fff88413          	addi	x8,x17,-1
40000b70:	00b7e863          	bltu	x15,x11,40000b80 <__divsf3+0x1c4>
40000b74:	0107f663          	bgeu	x15,x16,40000b80 <__divsf3+0x1c4>
40000b78:	ffe88413          	addi	x8,x17,-2
40000b7c:	00b787b3          	add	x15,x15,x11
40000b80:	410787b3          	sub	x15,x15,x16
40000b84:	02a7d833          	divu	x16,x15,x10
40000b88:	02a7f7b3          	remu	x15,x15,x10
40000b8c:	03068733          	mul	x14,x13,x16
40000b90:	01079793          	slli	x15,x15,0x10
40000b94:	00080693          	addi	x13,x16,0 # 10000 <__heap_size+0xf000>
40000b98:	02e7f263          	bgeu	x15,x14,40000bbc <__divsf3+0x200>
40000b9c:	00b78533          	add	x10,x15,x11
40000ba0:	00f538b3          	sltu	x17,x10,x15
40000ba4:	fff80693          	addi	x13,x16,-1
40000ba8:	00050793          	addi	x15,x10,0
40000bac:	00089863          	bne	x17,x0,40000bbc <__divsf3+0x200>
40000bb0:	00e57663          	bgeu	x10,x14,40000bbc <__divsf3+0x200>
40000bb4:	ffe80693          	addi	x13,x16,-2
40000bb8:	00b507b3          	add	x15,x10,x11
40000bbc:	01041413          	slli	x8,x8,0x10
40000bc0:	40e787b3          	sub	x15,x15,x14
40000bc4:	00d46433          	or	x8,x8,x13
40000bc8:	00f037b3          	sltu	x15,x0,x15
40000bcc:	00f46433          	or	x8,x8,x15
40000bd0:	07f48713          	addi	x14,x9,127
40000bd4:	08e05a63          	bge	x0,x14,40000c68 <__divsf3+0x2ac>
40000bd8:	00747793          	andi	x15,x8,7
40000bdc:	00078a63          	beq	x15,x0,40000bf0 <__divsf3+0x234>
40000be0:	00f47793          	andi	x15,x8,15
40000be4:	00400693          	addi	x13,x0,4
40000be8:	00d78463          	beq	x15,x13,40000bf0 <__divsf3+0x234>
40000bec:	00440413          	addi	x8,x8,4
40000bf0:	080007b7          	lui	x15,0x8000
40000bf4:	00f477b3          	and	x15,x8,x15
40000bf8:	00078a63          	beq	x15,x0,40000c0c <__divsf3+0x250>
40000bfc:	f80007b7          	lui	x15,0xf8000
40000c00:	fff78793          	addi	x15,x15,-1 # f7ffffff <_end+0xb7ff9147>
40000c04:	00f47433          	and	x8,x8,x15
40000c08:	08048713          	addi	x14,x9,128
40000c0c:	0fe00793          	addi	x15,x0,254
40000c10:	0ce7c663          	blt	x15,x14,40000cdc <__divsf3+0x320>
40000c14:	00345793          	srli	x15,x8,0x3
40000c18:	01c12083          	lw	x1,28(x2)
40000c1c:	01812403          	lw	x8,24(x2)
40000c20:	00979793          	slli	x15,x15,0x9
40000c24:	01771713          	slli	x14,x14,0x17
40000c28:	0097d793          	srli	x15,x15,0x9
40000c2c:	00f76733          	or	x14,x14,x15
40000c30:	01f61513          	slli	x10,x12,0x1f
40000c34:	01412483          	lw	x9,20(x2)
40000c38:	01012903          	lw	x18,16(x2)
40000c3c:	00c12983          	lw	x19,12(x2)
40000c40:	00812a03          	lw	x20,8(x2)
40000c44:	00412a83          	lw	x21,4(x2)
40000c48:	00a76533          	or	x10,x14,x10
40000c4c:	02010113          	addi	x2,x2,32
40000c50:	00008067          	jalr	x0,0(x1)
40000c54:	01f99793          	slli	x15,x19,0x1f
40000c58:	0019d993          	srli	x19,x19,0x1
40000c5c:	eddff06f          	jal	x0,40000b38 <__divsf3+0x17c>
40000c60:	000a0613          	addi	x12,x20,0
40000c64:	ea1ff06f          	jal	x0,40000b04 <__divsf3+0x148>
40000c68:	00100693          	addi	x13,x0,1
40000c6c:	00070c63          	beq	x14,x0,40000c84 <__divsf3+0x2c8>
40000c70:	40e686b3          	sub	x13,x13,x14
40000c74:	01b00593          	addi	x11,x0,27
40000c78:	00000793          	addi	x15,x0,0
40000c7c:	00000713          	addi	x14,x0,0
40000c80:	f8d5cce3          	blt	x11,x13,40000c18 <__divsf3+0x25c>
40000c84:	09e48493          	addi	x9,x9,158
40000c88:	00d456b3          	srl	x13,x8,x13
40000c8c:	00941433          	sll	x8,x8,x9
40000c90:	00803433          	sltu	x8,x0,x8
40000c94:	0086e7b3          	or	x15,x13,x8
40000c98:	0077f713          	andi	x14,x15,7
40000c9c:	00070a63          	beq	x14,x0,40000cb0 <__divsf3+0x2f4>
40000ca0:	00f7f713          	andi	x14,x15,15
40000ca4:	00400693          	addi	x13,x0,4
40000ca8:	00d70463          	beq	x14,x13,40000cb0 <__divsf3+0x2f4>
40000cac:	00478793          	addi	x15,x15,4
40000cb0:	04000737          	lui	x14,0x4000
40000cb4:	00e7f733          	and	x14,x15,x14
40000cb8:	0037d793          	srli	x15,x15,0x3
40000cbc:	f4070ee3          	beq	x14,x0,40000c18 <__divsf3+0x25c>
40000cc0:	00000793          	addi	x15,x0,0
40000cc4:	00100713          	addi	x14,x0,1
40000cc8:	f51ff06f          	jal	x0,40000c18 <__divsf3+0x25c>
40000ccc:	004007b7          	lui	x15,0x400
40000cd0:	0ff00713          	addi	x14,x0,255
40000cd4:	00000613          	addi	x12,x0,0
40000cd8:	f41ff06f          	jal	x0,40000c18 <__divsf3+0x25c>
40000cdc:	00000793          	addi	x15,x0,0
40000ce0:	0ff00713          	addi	x14,x0,255
40000ce4:	f35ff06f          	jal	x0,40000c18 <__divsf3+0x25c>

40000ce8 <__mulsf3>:
40000ce8:	fe010113          	addi	x2,x2,-32
40000cec:	01212823          	sw	x18,16(x2)
40000cf0:	01755913          	srli	x18,x10,0x17
40000cf4:	00912a23          	sw	x9,20(x2)
40000cf8:	01312623          	sw	x19,12(x2)
40000cfc:	01512223          	sw	x21,4(x2)
40000d00:	00951493          	slli	x9,x10,0x9
40000d04:	00112e23          	sw	x1,28(x2)
40000d08:	00812c23          	sw	x8,24(x2)
40000d0c:	01412423          	sw	x20,8(x2)
40000d10:	0ff97913          	andi	x18,x18,255
40000d14:	00058a93          	addi	x21,x11,0
40000d18:	0094d493          	srli	x9,x9,0x9
40000d1c:	01f55993          	srli	x19,x10,0x1f
40000d20:	18090663          	beq	x18,x0,40000eac <__mulsf3+0x1c4>
40000d24:	0ff00793          	addi	x15,x0,255
40000d28:	1af90263          	beq	x18,x15,40000ecc <__mulsf3+0x1e4>
40000d2c:	00349493          	slli	x9,x9,0x3
40000d30:	040007b7          	lui	x15,0x4000
40000d34:	00f4e4b3          	or	x9,x9,x15
40000d38:	f8190913          	addi	x18,x18,-127
40000d3c:	00000a13          	addi	x20,x0,0
40000d40:	017ad793          	srli	x15,x21,0x17
40000d44:	009a9413          	slli	x8,x21,0x9
40000d48:	0ff7f793          	andi	x15,x15,255
40000d4c:	00945413          	srli	x8,x8,0x9
40000d50:	01fada93          	srli	x21,x21,0x1f
40000d54:	18078c63          	beq	x15,x0,40000eec <__mulsf3+0x204>
40000d58:	0ff00713          	addi	x14,x0,255
40000d5c:	1ae78863          	beq	x15,x14,40000f0c <__mulsf3+0x224>
40000d60:	00341413          	slli	x8,x8,0x3
40000d64:	04000737          	lui	x14,0x4000
40000d68:	00e46433          	or	x8,x8,x14
40000d6c:	f8178793          	addi	x15,x15,-127 # 3ffff81 <__heap_size+0x3ffef81>
40000d70:	00000713          	addi	x14,x0,0
40000d74:	00f90933          	add	x18,x18,x15
40000d78:	002a1793          	slli	x15,x20,0x2
40000d7c:	00e7e7b3          	or	x15,x15,x14
40000d80:	00a00693          	addi	x13,x0,10
40000d84:	0159c533          	xor	x10,x19,x21
40000d88:	00190613          	addi	x12,x18,1
40000d8c:	1ef6c463          	blt	x13,x15,40000f74 <__mulsf3+0x28c>
40000d90:	00200693          	addi	x13,x0,2
40000d94:	18f6cc63          	blt	x13,x15,40000f2c <__mulsf3+0x244>
40000d98:	fff78793          	addi	x15,x15,-1
40000d9c:	00100693          	addi	x13,x0,1
40000da0:	1af6f863          	bgeu	x13,x15,40000f50 <__mulsf3+0x268>
40000da4:	000108b7          	lui	x17,0x10
40000da8:	fff88813          	addi	x16,x17,-1 # ffff <__heap_size+0xefff>
40000dac:	0104d713          	srli	x14,x9,0x10
40000db0:	01045793          	srli	x15,x8,0x10
40000db4:	010476b3          	and	x13,x8,x16
40000db8:	0104f4b3          	and	x9,x9,x16
40000dbc:	029685b3          	mul	x11,x13,x9
40000dc0:	02d706b3          	mul	x13,x14,x13
40000dc4:	0105d413          	srli	x8,x11,0x10
40000dc8:	02f70733          	mul	x14,x14,x15
40000dcc:	029787b3          	mul	x15,x15,x9
40000dd0:	00d787b3          	add	x15,x15,x13
40000dd4:	00f40433          	add	x8,x8,x15
40000dd8:	00d47463          	bgeu	x8,x13,40000de0 <__mulsf3+0xf8>
40000ddc:	01170733          	add	x14,x14,x17
40000de0:	010477b3          	and	x15,x8,x16
40000de4:	01079793          	slli	x15,x15,0x10
40000de8:	0105f5b3          	and	x11,x11,x16
40000dec:	00b787b3          	add	x15,x15,x11
40000df0:	00679693          	slli	x13,x15,0x6
40000df4:	01045413          	srli	x8,x8,0x10
40000df8:	00d036b3          	sltu	x13,x0,x13
40000dfc:	01a7d793          	srli	x15,x15,0x1a
40000e00:	00e40433          	add	x8,x8,x14
40000e04:	00f6e7b3          	or	x15,x13,x15
40000e08:	00641413          	slli	x8,x8,0x6
40000e0c:	00f46433          	or	x8,x8,x15
40000e10:	080007b7          	lui	x15,0x8000
40000e14:	00f477b3          	and	x15,x8,x15
40000e18:	16078e63          	beq	x15,x0,40000f94 <__mulsf3+0x2ac>
40000e1c:	00145793          	srli	x15,x8,0x1
40000e20:	00147413          	andi	x8,x8,1
40000e24:	0087e433          	or	x8,x15,x8
40000e28:	07f60713          	addi	x14,x12,127
40000e2c:	16e05863          	bge	x0,x14,40000f9c <__mulsf3+0x2b4>
40000e30:	00747793          	andi	x15,x8,7
40000e34:	00078a63          	beq	x15,x0,40000e48 <__mulsf3+0x160>
40000e38:	00f47793          	andi	x15,x8,15
40000e3c:	00400693          	addi	x13,x0,4
40000e40:	00d78463          	beq	x15,x13,40000e48 <__mulsf3+0x160>
40000e44:	00440413          	addi	x8,x8,4
40000e48:	080007b7          	lui	x15,0x8000
40000e4c:	00f477b3          	and	x15,x8,x15
40000e50:	00078a63          	beq	x15,x0,40000e64 <__mulsf3+0x17c>
40000e54:	f80007b7          	lui	x15,0xf8000
40000e58:	fff78793          	addi	x15,x15,-1 # f7ffffff <_end+0xb7ff9147>
40000e5c:	00f47433          	and	x8,x8,x15
40000e60:	08060713          	addi	x14,x12,128
40000e64:	0fe00793          	addi	x15,x0,254
40000e68:	1ae7c463          	blt	x15,x14,40001010 <__mulsf3+0x328>
40000e6c:	00345793          	srli	x15,x8,0x3
40000e70:	01c12083          	lw	x1,28(x2)
40000e74:	01812403          	lw	x8,24(x2)
40000e78:	00979793          	slli	x15,x15,0x9
40000e7c:	01771713          	slli	x14,x14,0x17
40000e80:	0097d793          	srli	x15,x15,0x9
40000e84:	00f76733          	or	x14,x14,x15
40000e88:	01f51513          	slli	x10,x10,0x1f
40000e8c:	01412483          	lw	x9,20(x2)
40000e90:	01012903          	lw	x18,16(x2)
40000e94:	00c12983          	lw	x19,12(x2)
40000e98:	00812a03          	lw	x20,8(x2)
40000e9c:	00412a83          	lw	x21,4(x2)
40000ea0:	00a76533          	or	x10,x14,x10
40000ea4:	02010113          	addi	x2,x2,32
40000ea8:	00008067          	jalr	x0,0(x1)
40000eac:	02048a63          	beq	x9,x0,40000ee0 <__mulsf3+0x1f8>
40000eb0:	00048513          	addi	x10,x9,0
40000eb4:	2ec000ef          	jal	x1,400011a0 <__clzsi2>
40000eb8:	ffb50793          	addi	x15,x10,-5
40000ebc:	f8a00913          	addi	x18,x0,-118
40000ec0:	00f494b3          	sll	x9,x9,x15
40000ec4:	40a90933          	sub	x18,x18,x10
40000ec8:	e75ff06f          	jal	x0,40000d3c <__mulsf3+0x54>
40000ecc:	0ff00913          	addi	x18,x0,255
40000ed0:	00300a13          	addi	x20,x0,3
40000ed4:	e60496e3          	bne	x9,x0,40000d40 <__mulsf3+0x58>
40000ed8:	00200a13          	addi	x20,x0,2
40000edc:	e65ff06f          	jal	x0,40000d40 <__mulsf3+0x58>
40000ee0:	00000913          	addi	x18,x0,0
40000ee4:	00100a13          	addi	x20,x0,1
40000ee8:	e59ff06f          	jal	x0,40000d40 <__mulsf3+0x58>
40000eec:	02040a63          	beq	x8,x0,40000f20 <__mulsf3+0x238>
40000ef0:	00040513          	addi	x10,x8,0
40000ef4:	2ac000ef          	jal	x1,400011a0 <__clzsi2>
40000ef8:	ffb50793          	addi	x15,x10,-5
40000efc:	00f41433          	sll	x8,x8,x15
40000f00:	f8a00793          	addi	x15,x0,-118
40000f04:	40a787b3          	sub	x15,x15,x10
40000f08:	e69ff06f          	jal	x0,40000d70 <__mulsf3+0x88>
40000f0c:	0ff00793          	addi	x15,x0,255
40000f10:	00300713          	addi	x14,x0,3
40000f14:	e60410e3          	bne	x8,x0,40000d74 <__mulsf3+0x8c>
40000f18:	00200713          	addi	x14,x0,2
40000f1c:	e59ff06f          	jal	x0,40000d74 <__mulsf3+0x8c>
40000f20:	00000793          	addi	x15,x0,0
40000f24:	00100713          	addi	x14,x0,1
40000f28:	e4dff06f          	jal	x0,40000d74 <__mulsf3+0x8c>
40000f2c:	00100693          	addi	x13,x0,1
40000f30:	00f697b3          	sll	x15,x13,x15
40000f34:	5307f693          	andi	x13,x15,1328
40000f38:	04069863          	bne	x13,x0,40000f88 <__mulsf3+0x2a0>
40000f3c:	2407f693          	andi	x13,x15,576
40000f40:	0c069063          	bne	x13,x0,40001000 <__mulsf3+0x318>
40000f44:	0887f793          	andi	x15,x15,136
40000f48:	e4078ee3          	beq	x15,x0,40000da4 <__mulsf3+0xbc>
40000f4c:	000a8513          	addi	x10,x21,0
40000f50:	00200793          	addi	x15,x0,2
40000f54:	0af70e63          	beq	x14,x15,40001010 <__mulsf3+0x328>
40000f58:	00300793          	addi	x15,x0,3
40000f5c:	0af70263          	beq	x14,x15,40001000 <__mulsf3+0x318>
40000f60:	00100793          	addi	x15,x0,1
40000f64:	ecf712e3          	bne	x14,x15,40000e28 <__mulsf3+0x140>
40000f68:	00000793          	addi	x15,x0,0
40000f6c:	00000713          	addi	x14,x0,0
40000f70:	f01ff06f          	jal	x0,40000e70 <__mulsf3+0x188>
40000f74:	00f00693          	addi	x13,x0,15
40000f78:	08d78463          	beq	x15,x13,40001000 <__mulsf3+0x318>
40000f7c:	00b00693          	addi	x13,x0,11
40000f80:	00098513          	addi	x10,x19,0
40000f84:	fcd784e3          	beq	x15,x13,40000f4c <__mulsf3+0x264>
40000f88:	00048413          	addi	x8,x9,0
40000f8c:	000a0713          	addi	x14,x20,0
40000f90:	fc1ff06f          	jal	x0,40000f50 <__mulsf3+0x268>
40000f94:	00090613          	addi	x12,x18,0
40000f98:	e91ff06f          	jal	x0,40000e28 <__mulsf3+0x140>
40000f9c:	00100693          	addi	x13,x0,1
40000fa0:	00070c63          	beq	x14,x0,40000fb8 <__mulsf3+0x2d0>
40000fa4:	40e686b3          	sub	x13,x13,x14
40000fa8:	01b00593          	addi	x11,x0,27
40000fac:	00000793          	addi	x15,x0,0
40000fb0:	00000713          	addi	x14,x0,0
40000fb4:	ead5cee3          	blt	x11,x13,40000e70 <__mulsf3+0x188>
40000fb8:	09e60613          	addi	x12,x12,158
40000fbc:	00d456b3          	srl	x13,x8,x13
40000fc0:	00c41433          	sll	x8,x8,x12
40000fc4:	00803433          	sltu	x8,x0,x8
40000fc8:	0086e7b3          	or	x15,x13,x8
40000fcc:	0077f713          	andi	x14,x15,7
40000fd0:	00070a63          	beq	x14,x0,40000fe4 <__mulsf3+0x2fc>
40000fd4:	00f7f713          	andi	x14,x15,15
40000fd8:	00400693          	addi	x13,x0,4
40000fdc:	00d70463          	beq	x14,x13,40000fe4 <__mulsf3+0x2fc>
40000fe0:	00478793          	addi	x15,x15,4
40000fe4:	04000737          	lui	x14,0x4000
40000fe8:	00e7f733          	and	x14,x15,x14
40000fec:	0037d793          	srli	x15,x15,0x3
40000ff0:	e80700e3          	beq	x14,x0,40000e70 <__mulsf3+0x188>
40000ff4:	00000793          	addi	x15,x0,0
40000ff8:	00100713          	addi	x14,x0,1
40000ffc:	e75ff06f          	jal	x0,40000e70 <__mulsf3+0x188>
40001000:	004007b7          	lui	x15,0x400
40001004:	0ff00713          	addi	x14,x0,255
40001008:	00000513          	addi	x10,x0,0
4000100c:	e65ff06f          	jal	x0,40000e70 <__mulsf3+0x188>
40001010:	00000793          	addi	x15,x0,0
40001014:	0ff00713          	addi	x14,x0,255
40001018:	e59ff06f          	jal	x0,40000e70 <__mulsf3+0x188>

4000101c <__fixsfsi>:
4000101c:	00800637          	lui	x12,0x800
40001020:	01755713          	srli	x14,x10,0x17
40001024:	fff60793          	addi	x15,x12,-1 # 7fffff <__heap_size+0x7fefff>
40001028:	0ff77713          	andi	x14,x14,255
4000102c:	07e00593          	addi	x11,x0,126
40001030:	00a7f7b3          	and	x15,x15,x10
40001034:	01f55693          	srli	x13,x10,0x1f
40001038:	04e5d663          	bge	x11,x14,40001084 <__fixsfsi+0x68>
4000103c:	09d00593          	addi	x11,x0,157
40001040:	00e5da63          	bge	x11,x14,40001054 <__fixsfsi+0x38>
40001044:	80000537          	lui	x10,0x80000
40001048:	fff54513          	xori	x10,x10,-1
4000104c:	00a68533          	add	x10,x13,x10
40001050:	00008067          	jalr	x0,0(x1)
40001054:	00c7e533          	or	x10,x15,x12
40001058:	09500793          	addi	x15,x0,149
4000105c:	00e7dc63          	bge	x15,x14,40001074 <__fixsfsi+0x58>
40001060:	f6a70713          	addi	x14,x14,-150 # 3ffff6a <__heap_size+0x3ffef6a>
40001064:	00e51533          	sll	x10,x10,x14
40001068:	02068063          	beq	x13,x0,40001088 <__fixsfsi+0x6c>
4000106c:	40a00533          	sub	x10,x0,x10
40001070:	00008067          	jalr	x0,0(x1)
40001074:	09600793          	addi	x15,x0,150
40001078:	40e787b3          	sub	x15,x15,x14
4000107c:	00f55533          	srl	x10,x10,x15
40001080:	fe9ff06f          	jal	x0,40001068 <__fixsfsi+0x4c>
40001084:	00000513          	addi	x10,x0,0
40001088:	00008067          	jalr	x0,0(x1)

4000108c <__floatsisf>:
4000108c:	ff010113          	addi	x2,x2,-16
40001090:	00112623          	sw	x1,12(x2)
40001094:	00812423          	sw	x8,8(x2)
40001098:	00912223          	sw	x9,4(x2)
4000109c:	00050793          	addi	x15,x10,0 # 80000000 <_end+0x3fff9148>
400010a0:	0e050663          	beq	x10,x0,4000118c <__floatsisf+0x100>
400010a4:	41f55713          	srai	x14,x10,0x1f
400010a8:	00a74433          	xor	x8,x14,x10
400010ac:	40e40433          	sub	x8,x8,x14
400010b0:	01f55493          	srli	x9,x10,0x1f
400010b4:	00040513          	addi	x10,x8,0
400010b8:	0e8000ef          	jal	x1,400011a0 <__clzsi2>
400010bc:	09e00793          	addi	x15,x0,158
400010c0:	40a787b3          	sub	x15,x15,x10
400010c4:	09600713          	addi	x14,x0,150
400010c8:	04f74063          	blt	x14,x15,40001108 <__floatsisf+0x7c>
400010cc:	00800713          	addi	x14,x0,8
400010d0:	0ce50463          	beq	x10,x14,40001198 <__floatsisf+0x10c>
400010d4:	ff850513          	addi	x10,x10,-8
400010d8:	00a41433          	sll	x8,x8,x10
400010dc:	00941413          	slli	x8,x8,0x9
400010e0:	00945413          	srli	x8,x8,0x9
400010e4:	01779793          	slli	x15,x15,0x17
400010e8:	00c12083          	lw	x1,12(x2)
400010ec:	0087e7b3          	or	x15,x15,x8
400010f0:	00812403          	lw	x8,8(x2)
400010f4:	01f49513          	slli	x10,x9,0x1f
400010f8:	00a7e533          	or	x10,x15,x10
400010fc:	00412483          	lw	x9,4(x2)
40001100:	01010113          	addi	x2,x2,16
40001104:	00008067          	jalr	x0,0(x1)
40001108:	09900713          	addi	x14,x0,153
4000110c:	06f75663          	bge	x14,x15,40001178 <__floatsisf+0xec>
40001110:	00500713          	addi	x14,x0,5
40001114:	40a70733          	sub	x14,x14,x10
40001118:	01b50693          	addi	x13,x10,27
4000111c:	00e45733          	srl	x14,x8,x14
40001120:	00d41433          	sll	x8,x8,x13
40001124:	00803433          	sltu	x8,x0,x8
40001128:	00876433          	or	x8,x14,x8
4000112c:	fc000737          	lui	x14,0xfc000
40001130:	fff70713          	addi	x14,x14,-1 # fbffffff <_end+0xbbff9147>
40001134:	00747693          	andi	x13,x8,7
40001138:	00e47733          	and	x14,x8,x14
4000113c:	00068a63          	beq	x13,x0,40001150 <__floatsisf+0xc4>
40001140:	00f47413          	andi	x8,x8,15
40001144:	00400693          	addi	x13,x0,4
40001148:	00d40463          	beq	x8,x13,40001150 <__floatsisf+0xc4>
4000114c:	00470713          	addi	x14,x14,4
40001150:	040006b7          	lui	x13,0x4000
40001154:	00d776b3          	and	x13,x14,x13
40001158:	00068c63          	beq	x13,x0,40001170 <__floatsisf+0xe4>
4000115c:	fc0007b7          	lui	x15,0xfc000
40001160:	fff78793          	addi	x15,x15,-1 # fbffffff <_end+0xbbff9147>
40001164:	00f77733          	and	x14,x14,x15
40001168:	09f00793          	addi	x15,x0,159
4000116c:	40a787b3          	sub	x15,x15,x10
40001170:	00375413          	srli	x8,x14,0x3
40001174:	f69ff06f          	jal	x0,400010dc <__floatsisf+0x50>
40001178:	00500693          	addi	x13,x0,5
4000117c:	ffb50713          	addi	x14,x10,-5
40001180:	fad506e3          	beq	x10,x13,4000112c <__floatsisf+0xa0>
40001184:	00e41433          	sll	x8,x8,x14
40001188:	fa5ff06f          	jal	x0,4000112c <__floatsisf+0xa0>
4000118c:	00000493          	addi	x9,x0,0
40001190:	00000413          	addi	x8,x0,0
40001194:	f49ff06f          	jal	x0,400010dc <__floatsisf+0x50>
40001198:	09600793          	addi	x15,x0,150
4000119c:	f41ff06f          	jal	x0,400010dc <__floatsisf+0x50>

400011a0 <__clzsi2>:
400011a0:	000107b7          	lui	x15,0x10
400011a4:	02f57863          	bgeu	x10,x15,400011d4 <__clzsi2+0x34>
400011a8:	10053793          	sltiu	x15,x10,256
400011ac:	0017c793          	xori	x15,x15,1
400011b0:	00379793          	slli	x15,x15,0x3
400011b4:	02000693          	addi	x13,x0,32
400011b8:	40f686b3          	sub	x13,x13,x15
400011bc:	00f55533          	srl	x10,x10,x15
400011c0:	0b818793          	addi	x15,x3,184 # 400041a8 <__clz_tab>
400011c4:	00a787b3          	add	x15,x15,x10
400011c8:	0007c503          	lbu	x10,0(x15) # 10000 <__heap_size+0xf000>
400011cc:	40a68533          	sub	x10,x13,x10
400011d0:	00008067          	jalr	x0,0(x1)
400011d4:	01000737          	lui	x14,0x1000
400011d8:	01000793          	addi	x15,x0,16
400011dc:	fce56ce3          	bltu	x10,x14,400011b4 <__clzsi2+0x14>
400011e0:	01800793          	addi	x15,x0,24
400011e4:	fd1ff06f          	jal	x0,400011b4 <__clzsi2+0x14>

Disassembly of section .text.number:

400011e8 <number>:
400011e8:	fa010113          	addi	x2,x2,-96
400011ec:	04812e23          	sw	x8,92(x2)
400011f0:	04912c23          	sw	x9,88(x2)
400011f4:	0407f893          	andi	x17,x15,64
400011f8:	00050813          	addi	x16,x10,0
400011fc:	00002f17          	auipc	x30,0x2
40001200:	72cf0f13          	addi	x30,x30,1836 # 40003928 <Func_3+0x44>
40001204:	00089663          	bne	x17,x0,40001210 <number+0x28>
40001208:	00002f17          	auipc	x30,0x2
4000120c:	6f8f0f13          	addi	x30,x30,1784 # 40003900 <Func_3+0x1c>
40001210:	0107f293          	andi	x5,x15,16
40001214:	44029863          	bne	x5,x0,40001664 <number+0x47c>
40001218:	0017f513          	andi	x10,x15,1
4000121c:	0117f493          	andi	x9,x15,17
40001220:	03000f93          	addi	x31,x0,48
40001224:	44050463          	beq	x10,x0,4000166c <number+0x484>
40001228:	0027f513          	andi	x10,x15,2
4000122c:	0207f393          	andi	x7,x15,32
40001230:	42050663          	beq	x10,x0,4000165c <number+0x474>
40001234:	4405c663          	blt	x11,x0,40001680 <number+0x498>
40001238:	0047f513          	andi	x10,x15,4
4000123c:	48051663          	bne	x10,x0,400016c8 <number+0x4e0>
40001240:	0087f793          	andi	x15,x15,8
40001244:	00000413          	addi	x8,x0,0
40001248:	00078663          	beq	x15,x0,40001254 <number+0x6c>
4000124c:	fff68693          	addi	x13,x13,-1 # 3ffffff <__heap_size+0x3ffefff>
40001250:	02000413          	addi	x8,x0,32
40001254:	00038c63          	beq	x7,x0,4000126c <number+0x84>
40001258:	01000793          	addi	x15,x0,16
4000125c:	4af60663          	beq	x12,x15,40001708 <number+0x520>
40001260:	ff860793          	addi	x15,x12,-8
40001264:	0017b793          	sltiu	x15,x15,1
40001268:	40f686b3          	sub	x13,x13,x15
4000126c:	42059263          	bne	x11,x0,40001690 <number+0x4a8>
40001270:	03000793          	addi	x15,x0,48
40001274:	00f10623          	sb	x15,12(x2)
40001278:	00100513          	addi	x10,x0,1
4000127c:	00c10313          	addi	x6,x2,12
40001280:	00050e13          	addi	x28,x10,0
40001284:	00e55463          	bge	x10,x14,4000128c <number+0xa4>
40001288:	00070e13          	addi	x28,x14,0 # 1000000 <__heap_size+0xfff000>
4000128c:	41c686b3          	sub	x13,x13,x28
40001290:	0e049063          	bne	x9,x0,40001370 <number+0x188>
40001294:	fff68e93          	addi	x29,x13,-1
40001298:	48d05a63          	bge	x0,x13,4000172c <number+0x544>
4000129c:	41000733          	sub	x14,x0,x16
400012a0:	00500893          	addi	x17,x0,5
400012a4:	00377793          	andi	x15,x14,3
400012a8:	49d8fe63          	bgeu	x17,x29,40001744 <number+0x55c>
400012ac:	00080f13          	addi	x30,x16,0
400012b0:	04078063          	beq	x15,x0,400012f0 <number+0x108>
400012b4:	02000893          	addi	x17,x0,32
400012b8:	01180023          	sb	x17,0(x16)
400012bc:	00277713          	andi	x14,x14,2
400012c0:	00180f13          	addi	x30,x16,1
400012c4:	ffe68e93          	addi	x29,x13,-2
400012c8:	02070463          	beq	x14,x0,400012f0 <number+0x108>
400012cc:	fff80713          	addi	x14,x16,-1
400012d0:	011800a3          	sb	x17,1(x16)
400012d4:	00377713          	andi	x14,x14,3
400012d8:	00280f13          	addi	x30,x16,2
400012dc:	ffd68e93          	addi	x29,x13,-3
400012e0:	00071863          	bne	x14,x0,400012f0 <number+0x108>
400012e4:	00380f13          	addi	x30,x16,3
400012e8:	01180123          	sb	x17,2(x16)
400012ec:	ffc68e93          	addi	x29,x13,-4
400012f0:	40f684b3          	sub	x9,x13,x15
400012f4:	ffc4f893          	andi	x17,x9,-4
400012f8:	00f807b3          	add	x15,x16,x15
400012fc:	20202737          	lui	x14,0x20202
40001300:	00f888b3          	add	x17,x17,x15
40001304:	02070713          	addi	x14,x14,32 # 20202020 <__heap_size+0x20201020>
40001308:	00e7a023          	sw	x14,0(x15)
4000130c:	00478793          	addi	x15,x15,4
40001310:	fef89ce3          	bne	x17,x15,40001308 <number+0x120>
40001314:	ffc4f713          	andi	x14,x9,-4
40001318:	0034f493          	andi	x9,x9,3
4000131c:	00ef07b3          	add	x15,x30,x14
40001320:	40ee8eb3          	sub	x29,x29,x14
40001324:	04048263          	beq	x9,x0,40001368 <number+0x180>
40001328:	02000713          	addi	x14,x0,32
4000132c:	00e78023          	sb	x14,0(x15)
40001330:	03d05c63          	bge	x0,x29,40001368 <number+0x180>
40001334:	00e780a3          	sb	x14,1(x15)
40001338:	00100893          	addi	x17,x0,1
4000133c:	031e8663          	beq	x29,x17,40001368 <number+0x180>
40001340:	00e78123          	sb	x14,2(x15)
40001344:	00200893          	addi	x17,x0,2
40001348:	031e8063          	beq	x29,x17,40001368 <number+0x180>
4000134c:	00e781a3          	sb	x14,3(x15)
40001350:	00300893          	addi	x17,x0,3
40001354:	011e8a63          	beq	x29,x17,40001368 <number+0x180>
40001358:	00e78223          	sb	x14,4(x15)
4000135c:	00400893          	addi	x17,x0,4
40001360:	011e8463          	beq	x29,x17,40001368 <number+0x180>
40001364:	00e782a3          	sb	x14,5(x15)
40001368:	00d80833          	add	x16,x16,x13
4000136c:	fff00693          	addi	x13,x0,-1
40001370:	00040663          	beq	x8,x0,4000137c <number+0x194>
40001374:	00880023          	sb	x8,0(x16)
40001378:	00180813          	addi	x16,x16,1
4000137c:	00038a63          	beq	x7,x0,40001390 <number+0x1a8>
40001380:	00800793          	addi	x15,x0,8
40001384:	36f60a63          	beq	x12,x15,400016f8 <number+0x510>
40001388:	01000793          	addi	x15,x0,16
4000138c:	34f60463          	beq	x12,x15,400016d4 <number+0x4ec>
40001390:	0e029463          	bne	x5,x0,40001478 <number+0x290>
40001394:	fff68893          	addi	x17,x13,-1
40001398:	38d05e63          	bge	x0,x13,40001734 <number+0x54c>
4000139c:	41000733          	sub	x14,x0,x16
400013a0:	00500613          	addi	x12,x0,5
400013a4:	00377793          	andi	x15,x14,3
400013a8:	39167a63          	bgeu	x12,x17,4000173c <number+0x554>
400013ac:	00080e93          	addi	x29,x16,0
400013b0:	02078e63          	beq	x15,x0,400013ec <number+0x204>
400013b4:	01f80023          	sb	x31,0(x16)
400013b8:	00277713          	andi	x14,x14,2
400013bc:	00180e93          	addi	x29,x16,1
400013c0:	ffe68893          	addi	x17,x13,-2
400013c4:	02070463          	beq	x14,x0,400013ec <number+0x204>
400013c8:	fff80713          	addi	x14,x16,-1
400013cc:	01f800a3          	sb	x31,1(x16)
400013d0:	00377713          	andi	x14,x14,3
400013d4:	00280e93          	addi	x29,x16,2
400013d8:	ffd68893          	addi	x17,x13,-3
400013dc:	00071863          	bne	x14,x0,400013ec <number+0x204>
400013e0:	00380e93          	addi	x29,x16,3
400013e4:	01f80123          	sb	x31,2(x16)
400013e8:	ffc68893          	addi	x17,x13,-4
400013ec:	008f9713          	slli	x14,x31,0x8
400013f0:	40f68f33          	sub	x30,x13,x15
400013f4:	010f9613          	slli	x12,x31,0x10
400013f8:	00efe733          	or	x14,x31,x14
400013fc:	00c76733          	or	x14,x14,x12
40001400:	018f9293          	slli	x5,x31,0x18
40001404:	00f807b3          	add	x15,x16,x15
40001408:	ffcf7613          	andi	x12,x30,-4
4000140c:	00576733          	or	x14,x14,x5
40001410:	00f60633          	add	x12,x12,x15
40001414:	00e7a023          	sw	x14,0(x15)
40001418:	00478793          	addi	x15,x15,4
4000141c:	fec79ce3          	bne	x15,x12,40001414 <number+0x22c>
40001420:	ffcf7713          	andi	x14,x30,-4
40001424:	003f7f13          	andi	x30,x30,3
40001428:	00ee87b3          	add	x15,x29,x14
4000142c:	40e888b3          	sub	x17,x17,x14
40001430:	040f0063          	beq	x30,x0,40001470 <number+0x288>
40001434:	01f78023          	sb	x31,0(x15)
40001438:	03105c63          	bge	x0,x17,40001470 <number+0x288>
4000143c:	01f780a3          	sb	x31,1(x15)
40001440:	00100713          	addi	x14,x0,1
40001444:	02e88663          	beq	x17,x14,40001470 <number+0x288>
40001448:	01f78123          	sb	x31,2(x15)
4000144c:	00200713          	addi	x14,x0,2
40001450:	02e88063          	beq	x17,x14,40001470 <number+0x288>
40001454:	01f781a3          	sb	x31,3(x15)
40001458:	00300713          	addi	x14,x0,3
4000145c:	00e88a63          	beq	x17,x14,40001470 <number+0x288>
40001460:	01f78223          	sb	x31,4(x15)
40001464:	00400713          	addi	x14,x0,4
40001468:	00e88463          	beq	x17,x14,40001470 <number+0x288>
4000146c:	01f782a3          	sb	x31,5(x15)
40001470:	00d80833          	add	x16,x16,x13
40001474:	fff00693          	addi	x13,x0,-1
40001478:	fffe0893          	addi	x17,x28,-1
4000147c:	0dc55e63          	bge	x10,x28,40001558 <number+0x370>
40001480:	40ae0f33          	sub	x30,x28,x10
40001484:	41000733          	sub	x14,x0,x16
40001488:	ffff0e93          	addi	x29,x30,-1
4000148c:	00500613          	addi	x12,x0,5
40001490:	00377793          	andi	x15,x14,3
40001494:	29d67863          	bgeu	x12,x29,40001724 <number+0x53c>
40001498:	00080e93          	addi	x29,x16,0
4000149c:	04078063          	beq	x15,x0,400014dc <number+0x2f4>
400014a0:	03000613          	addi	x12,x0,48
400014a4:	00c80023          	sb	x12,0(x16)
400014a8:	00277713          	andi	x14,x14,2
400014ac:	00180e93          	addi	x29,x16,1
400014b0:	ffee0893          	addi	x17,x28,-2
400014b4:	02070463          	beq	x14,x0,400014dc <number+0x2f4>
400014b8:	fff80713          	addi	x14,x16,-1
400014bc:	00c800a3          	sb	x12,1(x16)
400014c0:	00377713          	andi	x14,x14,3
400014c4:	00280e93          	addi	x29,x16,2
400014c8:	ffde0893          	addi	x17,x28,-3
400014cc:	00071863          	bne	x14,x0,400014dc <number+0x2f4>
400014d0:	00380e93          	addi	x29,x16,3
400014d4:	00c80123          	sb	x12,2(x16)
400014d8:	ffce0893          	addi	x17,x28,-4
400014dc:	40ff0e33          	sub	x28,x30,x15
400014e0:	ffce7613          	andi	x12,x28,-4
400014e4:	00f807b3          	add	x15,x16,x15
400014e8:	30303737          	lui	x14,0x30303
400014ec:	00f60633          	add	x12,x12,x15
400014f0:	03070713          	addi	x14,x14,48 # 30303030 <__heap_size+0x30302030>
400014f4:	00e7a023          	sw	x14,0(x15)
400014f8:	00478793          	addi	x15,x15,4
400014fc:	fef61ce3          	bne	x12,x15,400014f4 <number+0x30c>
40001500:	003e7793          	andi	x15,x28,3
40001504:	04078863          	beq	x15,x0,40001554 <number+0x36c>
40001508:	ffce7e13          	andi	x28,x28,-4
4000150c:	01ce87b3          	add	x15,x29,x28
40001510:	41c888b3          	sub	x17,x17,x28
40001514:	03000713          	addi	x14,x0,48
40001518:	00e78023          	sb	x14,0(x15)
4000151c:	fff88613          	addi	x12,x17,-1
40001520:	03155a63          	bge	x10,x17,40001554 <number+0x36c>
40001524:	00e780a3          	sb	x14,1(x15)
40001528:	ffe88e13          	addi	x28,x17,-2
4000152c:	02c55463          	bge	x10,x12,40001554 <number+0x36c>
40001530:	00e78123          	sb	x14,2(x15)
40001534:	ffd88613          	addi	x12,x17,-3
40001538:	01c55e63          	bge	x10,x28,40001554 <number+0x36c>
4000153c:	00e781a3          	sb	x14,3(x15)
40001540:	ffc88893          	addi	x17,x17,-4
40001544:	00c55863          	bge	x10,x12,40001554 <number+0x36c>
40001548:	00e78223          	sb	x14,4(x15)
4000154c:	01155463          	bge	x10,x17,40001554 <number+0x36c>
40001550:	00e782a3          	sb	x14,5(x15)
40001554:	01e80833          	add	x16,x16,x30
40001558:	00b307b3          	add	x15,x6,x11
4000155c:	00080713          	addi	x14,x16,0
40001560:	0007c503          	lbu	x10,0(x15)
40001564:	00078613          	addi	x12,x15,0
40001568:	00170713          	addi	x14,x14,1
4000156c:	fea70fa3          	sb	x10,-1(x14)
40001570:	fff78793          	addi	x15,x15,-1
40001574:	fec316e3          	bne	x6,x12,40001560 <number+0x378>
40001578:	00158593          	addi	x11,x11,1
4000157c:	00b80533          	add	x10,x16,x11
40001580:	fff68613          	addi	x12,x13,-1
40001584:	0cd05463          	bge	x0,x13,4000164c <number+0x464>
40001588:	40a00733          	sub	x14,x0,x10
4000158c:	00500893          	addi	x17,x0,5
40001590:	00377793          	andi	x15,x14,3
40001594:	18c8f463          	bgeu	x17,x12,4000171c <number+0x534>
40001598:	00050893          	addi	x17,x10,0
4000159c:	02078863          	beq	x15,x0,400015cc <number+0x3e4>
400015a0:	02000613          	addi	x12,x0,32
400015a4:	00c50023          	sb	x12,0(x10)
400015a8:	00277713          	andi	x14,x14,2
400015ac:	14070063          	beq	x14,x0,400016ec <number+0x504>
400015b0:	fff50713          	addi	x14,x10,-1
400015b4:	00c500a3          	sb	x12,1(x10)
400015b8:	00377713          	andi	x14,x14,3
400015bc:	14071a63          	bne	x14,x0,40001710 <number+0x528>
400015c0:	00c50123          	sb	x12,2(x10)
400015c4:	00350893          	addi	x17,x10,3
400015c8:	ffc68613          	addi	x12,x13,-4
400015cc:	40f68333          	sub	x6,x13,x15
400015d0:	00b787b3          	add	x15,x15,x11
400015d4:	00f805b3          	add	x11,x16,x15
400015d8:	ffc37713          	andi	x14,x6,-4
400015dc:	202027b7          	lui	x15,0x20202
400015e0:	00b70733          	add	x14,x14,x11
400015e4:	02078793          	addi	x15,x15,32 # 20202020 <__heap_size+0x20201020>
400015e8:	00f5a023          	sw	x15,0(x11)
400015ec:	00458593          	addi	x11,x11,4
400015f0:	fee59ce3          	bne	x11,x14,400015e8 <number+0x400>
400015f4:	00337793          	andi	x15,x6,3
400015f8:	04078863          	beq	x15,x0,40001648 <number+0x460>
400015fc:	ffc37313          	andi	x6,x6,-4
40001600:	006887b3          	add	x15,x17,x6
40001604:	40660633          	sub	x12,x12,x6
40001608:	02000713          	addi	x14,x0,32
4000160c:	00e78023          	sb	x14,0(x15)
40001610:	02c05c63          	bge	x0,x12,40001648 <number+0x460>
40001614:	00e780a3          	sb	x14,1(x15)
40001618:	00100593          	addi	x11,x0,1
4000161c:	02b60663          	beq	x12,x11,40001648 <number+0x460>
40001620:	00e78123          	sb	x14,2(x15)
40001624:	00200593          	addi	x11,x0,2
40001628:	02b60063          	beq	x12,x11,40001648 <number+0x460>
4000162c:	00e781a3          	sb	x14,3(x15)
40001630:	00300593          	addi	x11,x0,3
40001634:	00b60a63          	beq	x12,x11,40001648 <number+0x460>
40001638:	00e78223          	sb	x14,4(x15)
4000163c:	00400593          	addi	x11,x0,4
40001640:	00b60463          	beq	x12,x11,40001648 <number+0x460>
40001644:	00e782a3          	sb	x14,5(x15)
40001648:	00d50533          	add	x10,x10,x13
4000164c:	05c12403          	lw	x8,92(x2)
40001650:	05812483          	lw	x9,88(x2)
40001654:	06010113          	addi	x2,x2,96
40001658:	00008067          	jalr	x0,0(x1)
4000165c:	00000413          	addi	x8,x0,0
40001660:	bf5ff06f          	jal	x0,40001254 <number+0x6c>
40001664:	ffe7f793          	andi	x15,x15,-2
40001668:	00028493          	addi	x9,x5,0
4000166c:	0027f513          	andi	x10,x15,2
40001670:	02000f93          	addi	x31,x0,32
40001674:	0207f393          	andi	x7,x15,32
40001678:	fe0502e3          	beq	x10,x0,4000165c <number+0x474>
4000167c:	bb9ff06f          	jal	x0,40001234 <number+0x4c>
40001680:	40b005b3          	sub	x11,x0,x11
40001684:	fff68693          	addi	x13,x13,-1
40001688:	02d00413          	addi	x8,x0,45
4000168c:	bc0396e3          	bne	x7,x0,40001258 <number+0x70>
40001690:	00058793          	addi	x15,x11,0
40001694:	00000513          	addi	x10,x0,0
40001698:	00c10313          	addi	x6,x2,12
4000169c:	02c7f8b3          	remu	x17,x15,x12
400016a0:	00050593          	addi	x11,x10,0
400016a4:	00150513          	addi	x10,x10,1
400016a8:	00a30eb3          	add	x29,x6,x10
400016ac:	00078e13          	addi	x28,x15,0
400016b0:	011f08b3          	add	x17,x30,x17
400016b4:	0008c883          	lbu	x17,0(x17)
400016b8:	02c7d7b3          	divu	x15,x15,x12
400016bc:	ff1e8fa3          	sb	x17,-1(x29)
400016c0:	fcce7ee3          	bgeu	x28,x12,4000169c <number+0x4b4>
400016c4:	bbdff06f          	jal	x0,40001280 <number+0x98>
400016c8:	fff68693          	addi	x13,x13,-1
400016cc:	02b00413          	addi	x8,x0,43
400016d0:	b85ff06f          	jal	x0,40001254 <number+0x6c>
400016d4:	03000793          	addi	x15,x0,48
400016d8:	00f80023          	sb	x15,0(x16)
400016dc:	07800793          	addi	x15,x0,120
400016e0:	00f800a3          	sb	x15,1(x16)
400016e4:	00280813          	addi	x16,x16,2
400016e8:	ca9ff06f          	jal	x0,40001390 <number+0x1a8>
400016ec:	00150893          	addi	x17,x10,1
400016f0:	ffe68613          	addi	x12,x13,-2
400016f4:	ed9ff06f          	jal	x0,400015cc <number+0x3e4>
400016f8:	03000793          	addi	x15,x0,48
400016fc:	00f80023          	sb	x15,0(x16)
40001700:	00180813          	addi	x16,x16,1
40001704:	c8dff06f          	jal	x0,40001390 <number+0x1a8>
40001708:	ffe68693          	addi	x13,x13,-2
4000170c:	b61ff06f          	jal	x0,4000126c <number+0x84>
40001710:	00250893          	addi	x17,x10,2
40001714:	ffd68613          	addi	x12,x13,-3
40001718:	eb5ff06f          	jal	x0,400015cc <number+0x3e4>
4000171c:	00050793          	addi	x15,x10,0
40001720:	ee9ff06f          	jal	x0,40001608 <number+0x420>
40001724:	00080793          	addi	x15,x16,0
40001728:	dedff06f          	jal	x0,40001514 <number+0x32c>
4000172c:	000e8693          	addi	x13,x29,0
40001730:	c41ff06f          	jal	x0,40001370 <number+0x188>
40001734:	00088693          	addi	x13,x17,0
40001738:	d41ff06f          	jal	x0,40001478 <number+0x290>
4000173c:	00080793          	addi	x15,x16,0
40001740:	cf5ff06f          	jal	x0,40001434 <number+0x24c>
40001744:	00080793          	addi	x15,x16,0
40001748:	be1ff06f          	jal	x0,40001328 <number+0x140>

Disassembly of section .text.malloc:

4000174c <malloc>:
4000174c:	1ec18693          	addi	x13,x3,492 # 400042dc <heap_memory_used2>
40001750:	0006a703          	lw	x14,0(x13)
40001754:	00a707b3          	add	x15,x14,x10
40001758:	00f6a023          	sw	x15,0(x13)
4000175c:	1f018513          	addi	x10,x3,496 # 400042e0 <heap_memory2>
40001760:	40000693          	addi	x13,x0,1024
40001764:	00e50533          	add	x10,x10,x14
40001768:	00f6d463          	bge	x13,x15,40001770 <malloc+0x24>
4000176c:	00100073          	ebreak
40001770:	00008067          	jalr	x0,0(x1)

Disassembly of section .text.strcpy:

40001774 <strcpy>:
40001774:	00050793          	addi	x15,x10,0
40001778:	0180006f          	jal	x0,40001790 <strcpy+0x1c>
4000177c:	0005c703          	lbu	x14,0(x11)
40001780:	00178793          	addi	x15,x15,1
40001784:	00158593          	addi	x11,x11,1
40001788:	fee78fa3          	sb	x14,-1(x15)
4000178c:	08070463          	beq	x14,x0,40001814 <strcpy+0xa0>
40001790:	00b7e733          	or	x14,x15,x11
40001794:	00377713          	andi	x14,x14,3
40001798:	fe0712e3          	bne	x14,x0,4000177c <strcpy+0x8>
4000179c:	0005a683          	lw	x13,0(x11)
400017a0:	feff08b7          	lui	x17,0xfeff0
400017a4:	eff88893          	addi	x17,x17,-257 # fefefeff <_end+0xbefe9047>
400017a8:	01168733          	add	x14,x13,x17
400017ac:	fff6c613          	xori	x12,x13,-1
400017b0:	80808837          	lui	x16,0x80808
400017b4:	00c77733          	and	x14,x14,x12
400017b8:	08080813          	addi	x16,x16,128 # 80808080 <_end+0x408011c8>
400017bc:	01077733          	and	x14,x14,x16
400017c0:	02071463          	bne	x14,x0,400017e8 <strcpy+0x74>
400017c4:	00d7a023          	sw	x13,0(x15)
400017c8:	0045a683          	lw	x13,4(x11)
400017cc:	00478793          	addi	x15,x15,4
400017d0:	00458593          	addi	x11,x11,4
400017d4:	01168733          	add	x14,x13,x17
400017d8:	fff6c613          	xori	x12,x13,-1
400017dc:	00c77733          	and	x14,x14,x12
400017e0:	01077733          	and	x14,x14,x16
400017e4:	fe0700e3          	beq	x14,x0,400017c4 <strcpy+0x50>
400017e8:	00d78023          	sb	x13,0(x15)
400017ec:	0ff6f713          	andi	x14,x13,255
400017f0:	02070263          	beq	x14,x0,40001814 <strcpy+0xa0>
400017f4:	0086d713          	srli	x14,x13,0x8
400017f8:	00e780a3          	sb	x14,1(x15)
400017fc:	0ff77713          	andi	x14,x14,255
40001800:	00070a63          	beq	x14,x0,40001814 <strcpy+0xa0>
40001804:	0106d713          	srli	x14,x13,0x10
40001808:	00e78123          	sb	x14,2(x15)
4000180c:	0ff77713          	andi	x14,x14,255
40001810:	00071463          	bne	x14,x0,40001818 <strcpy+0xa4>
40001814:	00008067          	jalr	x0,0(x1)
40001818:	0186d693          	srli	x13,x13,0x18
4000181c:	00d781a3          	sb	x13,3(x15)
40001820:	00008067          	jalr	x0,0(x1)

Disassembly of section .text.mytime:

40001824 <mytime>:
40001824:	300007b7          	lui	x15,0x30000
40001828:	0007a503          	lw	x10,0(x15) # 30000000 <__heap_size+0x2ffff000>
4000182c:	00008067          	jalr	x0,0(x1)

Disassembly of section .text.uart_txfull:

40001830 <uart_txfull>:
40001830:	200007b7          	lui	x15,0x20000
40001834:	0047a503          	lw	x10,4(x15) # 20000004 <__heap_size+0x1ffff004>
40001838:	00157513          	andi	x10,x10,1
4000183c:	00008067          	jalr	x0,0(x1)

Disassembly of section .text.zputchar:

40001840 <zputchar>:
40001840:	20000737          	lui	x14,0x20000
40001844:	00472783          	lw	x15,4(x14) # 20000004 <__heap_size+0x1ffff004>
40001848:	0017f793          	andi	x15,x15,1
4000184c:	fe079ce3          	bne	x15,x0,40001844 <zputchar+0x4>
40001850:	00a00793          	addi	x15,x0,10
40001854:	00f50863          	beq	x10,x15,40001864 <zputchar+0x24>
40001858:	200007b7          	lui	x15,0x20000
4000185c:	00a7a623          	sw	x10,12(x15) # 2000000c <__heap_size+0x1ffff00c>
40001860:	00008067          	jalr	x0,0(x1)
40001864:	20000737          	lui	x14,0x20000
40001868:	00472783          	lw	x15,4(x14) # 20000004 <__heap_size+0x1ffff004>
4000186c:	0017f793          	andi	x15,x15,1
40001870:	fe079ce3          	bne	x15,x0,40001868 <zputchar+0x28>
40001874:	00d00793          	addi	x15,x0,13
40001878:	00f72623          	sw	x15,12(x14)
4000187c:	200007b7          	lui	x15,0x20000
40001880:	00a7a623          	sw	x10,12(x15) # 2000000c <__heap_size+0x1ffff00c>
40001884:	00008067          	jalr	x0,0(x1)

Disassembly of section .text.uart_send_char:

40001888 <uart_send_char>:
40001888:	20000737          	lui	x14,0x20000
4000188c:	00472783          	lw	x15,4(x14) # 20000004 <__heap_size+0x1ffff004>
40001890:	0017f793          	andi	x15,x15,1
40001894:	fe079ce3          	bne	x15,x0,4000188c <uart_send_char+0x4>
40001898:	00a00793          	addi	x15,x0,10
4000189c:	00f50863          	beq	x10,x15,400018ac <uart_send_char+0x24>
400018a0:	200007b7          	lui	x15,0x20000
400018a4:	00a7a623          	sw	x10,12(x15) # 2000000c <__heap_size+0x1ffff00c>
400018a8:	00008067          	jalr	x0,0(x1)
400018ac:	20000737          	lui	x14,0x20000
400018b0:	00472783          	lw	x15,4(x14) # 20000004 <__heap_size+0x1ffff004>
400018b4:	0017f793          	andi	x15,x15,1
400018b8:	fe079ce3          	bne	x15,x0,400018b0 <uart_send_char+0x28>
400018bc:	00d00793          	addi	x15,x0,13
400018c0:	00f72623          	sw	x15,12(x14)
400018c4:	200007b7          	lui	x15,0x20000
400018c8:	00a7a623          	sw	x10,12(x15) # 2000000c <__heap_size+0x1ffff00c>
400018cc:	00008067          	jalr	x0,0(x1)

Disassembly of section .text.ee_printf:

400018d0 <ee_printf>:
400018d0:	b7010113          	addi	x2,x2,-1168
400018d4:	47212023          	sw	x18,1120(x2)
400018d8:	46112623          	sw	x1,1132(x2)
400018dc:	46812423          	sw	x8,1128(x2)
400018e0:	46912223          	sw	x9,1124(x2)
400018e4:	45312e23          	sw	x19,1116(x2)
400018e8:	45412c23          	sw	x20,1112(x2)
400018ec:	45512a23          	sw	x21,1108(x2)
400018f0:	45612823          	sw	x22,1104(x2)
400018f4:	45712623          	sw	x23,1100(x2)
400018f8:	45812423          	sw	x24,1096(x2)
400018fc:	45912223          	sw	x25,1092(x2)
40001900:	45a12023          	sw	x26,1088(x2)
40001904:	43b12e23          	sw	x27,1084(x2)
40001908:	46b12a23          	sw	x11,1140(x2)
4000190c:	46c12c23          	sw	x12,1144(x2)
40001910:	46d12e23          	sw	x13,1148(x2)
40001914:	48e12023          	sw	x14,1152(x2)
40001918:	48f12223          	sw	x15,1156(x2)
4000191c:	49012423          	sw	x16,1160(x2)
40001920:	49112623          	sw	x17,1164(x2)
40001924:	00054783          	lbu	x15,0(x10)
40001928:	47410913          	addi	x18,x2,1140
4000192c:	01212a23          	sw	x18,20(x2)
40001930:	00079463          	bne	x15,x0,40001938 <ee_printf+0x68>
40001934:	0900106f          	jal	x0,400029c4 <ee_printf+0x10f4>
40001938:	03010a13          	addi	x20,x2,48
4000193c:	00050313          	addi	x6,x10,0
40001940:	02500993          	addi	x19,x0,37
40001944:	000a0513          	addi	x10,x20,0
40001948:	01000493          	addi	x9,x0,16
4000194c:	e3c18413          	addi	x8,x3,-452 # 40003f2c <Func_3+0x648>
40001950:	00900c13          	addi	x24,x0,9
40001954:	02e00b93          	addi	x23,x0,46
40001958:	04c00b13          	addi	x22,x0,76
4000195c:	03700a93          	addi	x21,x0,55
40001960:	0d378263          	beq	x15,x19,40001a24 <ee_printf+0x154>
40001964:	00f50023          	sb	x15,0(x10)
40001968:	00134783          	lbu	x15,1(x6)
4000196c:	00150513          	addi	x10,x10,1
40001970:	00130313          	addi	x6,x6,1
40001974:	fe0796e3          	bne	x15,x0,40001960 <ee_printf+0x90>
40001978:	00050023          	sb	x0,0(x10)
4000197c:	03014683          	lbu	x13,48(x2)
40001980:	00069463          	bne	x13,x0,40001988 <ee_printf+0xb8>
40001984:	0380106f          	jal	x0,400029bc <ee_printf+0x10ec>
40001988:	000a0613          	addi	x12,x20,0
4000198c:	20000737          	lui	x14,0x20000
40001990:	00a00593          	addi	x11,x0,10
40001994:	00d00513          	addi	x10,x0,13
40001998:	00472783          	lw	x15,4(x14) # 20000004 <__heap_size+0x1ffff004>
4000199c:	0017f793          	andi	x15,x15,1
400019a0:	fe079ce3          	bne	x15,x0,40001998 <ee_printf+0xc8>
400019a4:	00b68e63          	beq	x13,x11,400019c0 <ee_printf+0xf0>
400019a8:	00d72623          	sw	x13,12(x14)
400019ac:	00164683          	lbu	x13,1(x12)
400019b0:	00160793          	addi	x15,x12,1
400019b4:	02068663          	beq	x13,x0,400019e0 <ee_printf+0x110>
400019b8:	00078613          	addi	x12,x15,0
400019bc:	fddff06f          	jal	x0,40001998 <ee_printf+0xc8>
400019c0:	00472783          	lw	x15,4(x14)
400019c4:	0017f793          	andi	x15,x15,1
400019c8:	fe079ce3          	bne	x15,x0,400019c0 <ee_printf+0xf0>
400019cc:	00a72623          	sw	x10,12(x14)
400019d0:	00d72623          	sw	x13,12(x14)
400019d4:	00164683          	lbu	x13,1(x12)
400019d8:	00160793          	addi	x15,x12,1
400019dc:	fc069ee3          	bne	x13,x0,400019b8 <ee_printf+0xe8>
400019e0:	41460633          	sub	x12,x12,x20
400019e4:	00160513          	addi	x10,x12,1
400019e8:	46c12083          	lw	x1,1132(x2)
400019ec:	46812403          	lw	x8,1128(x2)
400019f0:	46412483          	lw	x9,1124(x2)
400019f4:	46012903          	lw	x18,1120(x2)
400019f8:	45c12983          	lw	x19,1116(x2)
400019fc:	45812a03          	lw	x20,1112(x2)
40001a00:	45412a83          	lw	x21,1108(x2)
40001a04:	45012b03          	lw	x22,1104(x2)
40001a08:	44c12b83          	lw	x23,1100(x2)
40001a0c:	44812c03          	lw	x24,1096(x2)
40001a10:	44412c83          	lw	x25,1092(x2)
40001a14:	44012d03          	lw	x26,1088(x2)
40001a18:	43c12d83          	lw	x27,1084(x2)
40001a1c:	49010113          	addi	x2,x2,1168
40001a20:	00008067          	jalr	x0,0(x1)
40001a24:	00000793          	addi	x15,x0,0
40001a28:	00134583          	lbu	x11,1(x6)
40001a2c:	00130613          	addi	x12,x6,1
40001a30:	fe058713          	addi	x14,x11,-32
40001a34:	0ff77713          	andi	x14,x14,255
40001a38:	00e4ec63          	bltu	x9,x14,40001a50 <ee_printf+0x180>
40001a3c:	00271713          	slli	x14,x14,0x2
40001a40:	00870733          	add	x14,x14,x8
40001a44:	00072703          	lw	x14,0(x14)
40001a48:	00870733          	add	x14,x14,x8
40001a4c:	00070067          	jalr	x0,0(x14)
40001a50:	fd058713          	addi	x14,x11,-48
40001a54:	0ff77713          	andi	x14,x14,255
40001a58:	10ec7863          	bgeu	x24,x14,40001b68 <ee_printf+0x298>
40001a5c:	02a00713          	addi	x14,x0,42
40001a60:	fff00693          	addi	x13,x0,-1
40001a64:	12e58c63          	beq	x11,x14,40001b9c <ee_printf+0x2cc>
40001a68:	fff00713          	addi	x14,x0,-1
40001a6c:	0d758863          	beq	x11,x23,40001b3c <ee_printf+0x26c>
40001a70:	0df5f813          	andi	x16,x11,223
40001a74:	09680c63          	beq	x16,x22,40001b0c <ee_printf+0x23c>
40001a78:	fbf58813          	addi	x16,x11,-65
40001a7c:	0ff87813          	andi	x16,x16,255
40001a80:	050aec63          	bltu	x21,x16,40001ad8 <ee_printf+0x208>
40001a84:	e8018893          	addi	x17,x3,-384 # 40003f70 <Func_3+0x68c>
40001a88:	00281813          	slli	x16,x16,0x2
40001a8c:	01180833          	add	x16,x16,x17
40001a90:	00082803          	lw	x16,0(x16)
40001a94:	01180833          	add	x16,x16,x17
40001a98:	00080067          	jalr	x0,0(x16)
40001a9c:	0017e793          	ori	x15,x15,1
40001aa0:	00060313          	addi	x6,x12,0
40001aa4:	f85ff06f          	jal	x0,40001a28 <ee_printf+0x158>
40001aa8:	0107e793          	ori	x15,x15,16
40001aac:	00060313          	addi	x6,x12,0
40001ab0:	f79ff06f          	jal	x0,40001a28 <ee_printf+0x158>
40001ab4:	0047e793          	ori	x15,x15,4
40001ab8:	00060313          	addi	x6,x12,0
40001abc:	f6dff06f          	jal	x0,40001a28 <ee_printf+0x158>
40001ac0:	0207e793          	ori	x15,x15,32
40001ac4:	00060313          	addi	x6,x12,0
40001ac8:	f61ff06f          	jal	x0,40001a28 <ee_printf+0x158>
40001acc:	0087e793          	ori	x15,x15,8
40001ad0:	00060313          	addi	x6,x12,0
40001ad4:	f55ff06f          	jal	x0,40001a28 <ee_printf+0x158>
40001ad8:	00060c93          	addi	x25,x12,0
40001adc:	02500793          	addi	x15,x0,37
40001ae0:	00f58a63          	beq	x11,x15,40001af4 <ee_printf+0x224>
40001ae4:	00f50023          	sb	x15,0(x10)
40001ae8:	000cc583          	lbu	x11,0(x25)
40001aec:	00150513          	addi	x10,x10,1
40001af0:	e80584e3          	beq	x11,x0,40001978 <ee_printf+0xa8>
40001af4:	00b50023          	sb	x11,0(x10)
40001af8:	001cc783          	lbu	x15,1(x25)
40001afc:	001c8313          	addi	x6,x25,1
40001b00:	00150513          	addi	x10,x10,1
40001b04:	e4079ee3          	bne	x15,x0,40001960 <ee_printf+0x90>
40001b08:	e71ff06f          	jal	x0,40001978 <ee_printf+0xa8>
40001b0c:	00058893          	addi	x17,x11,0
40001b10:	00164583          	lbu	x11,1(x12)
40001b14:	00160c93          	addi	x25,x12,1
40001b18:	fbf58813          	addi	x16,x11,-65
40001b1c:	0ff87813          	andi	x16,x16,255
40001b20:	fb0aeee3          	bltu	x21,x16,40001adc <ee_printf+0x20c>
40001b24:	f6018313          	addi	x6,x3,-160 # 40004050 <Func_3+0x76c>
40001b28:	00281813          	slli	x16,x16,0x2
40001b2c:	00680833          	add	x16,x16,x6
40001b30:	00082803          	lw	x16,0(x16)
40001b34:	00680833          	add	x16,x16,x6
40001b38:	00080067          	jalr	x0,0(x16)
40001b3c:	00164583          	lbu	x11,1(x12)
40001b40:	00900893          	addi	x17,x0,9
40001b44:	00160813          	addi	x16,x12,1
40001b48:	fd058713          	addi	x14,x11,-48
40001b4c:	0ff77713          	andi	x14,x14,255
40001b50:	7ce8f063          	bgeu	x17,x14,40002310 <ee_printf+0xa40>
40001b54:	02a00713          	addi	x14,x0,42
40001b58:	7ee58a63          	beq	x11,x14,4000234c <ee_printf+0xa7c>
40001b5c:	00080613          	addi	x12,x16,0
40001b60:	00000713          	addi	x14,x0,0
40001b64:	f0dff06f          	jal	x0,40001a70 <ee_printf+0x1a0>
40001b68:	00000693          	addi	x13,x0,0
40001b6c:	00900813          	addi	x16,x0,9
40001b70:	00269713          	slli	x14,x13,0x2
40001b74:	00d70733          	add	x14,x14,x13
40001b78:	00160613          	addi	x12,x12,1
40001b7c:	00171713          	slli	x14,x14,0x1
40001b80:	00b70733          	add	x14,x14,x11
40001b84:	00064583          	lbu	x11,0(x12)
40001b88:	fd070693          	addi	x13,x14,-48
40001b8c:	fd058713          	addi	x14,x11,-48
40001b90:	0ff77713          	andi	x14,x14,255
40001b94:	fce87ee3          	bgeu	x16,x14,40001b70 <ee_printf+0x2a0>
40001b98:	ed1ff06f          	jal	x0,40001a68 <ee_printf+0x198>
40001b9c:	00092683          	lw	x13,0(x18)
40001ba0:	00234583          	lbu	x11,2(x6)
40001ba4:	00230613          	addi	x12,x6,2
40001ba8:	00490913          	addi	x18,x18,4
40001bac:	ea06dee3          	bge	x13,x0,40001a68 <ee_printf+0x198>
40001bb0:	40d006b3          	sub	x13,x0,x13
40001bb4:	0107e793          	ori	x15,x15,16
40001bb8:	eb1ff06f          	jal	x0,40001a68 <ee_printf+0x198>
40001bbc:	0407e793          	ori	x15,x15,64
40001bc0:	06c00713          	addi	x14,x0,108
40001bc4:	7ae88463          	beq	x17,x14,4000236c <ee_printf+0xa9c>
40001bc8:	00092883          	lw	x17,0(x18)
40001bcc:	00490913          	addi	x18,x18,4
40001bd0:	0008c703          	lbu	x14,0(x17)
40001bd4:	2a071ce3          	bne	x14,x0,4000268c <ee_printf+0xdbc>
40001bd8:	03000713          	addi	x14,x0,48
40001bdc:	00100593          	addi	x11,x0,1
40001be0:	00e10c23          	sb	x14,24(x2)
40001be4:	42058813          	addi	x16,x11,1056
40001be8:	01010313          	addi	x6,x2,16
40001bec:	0018c703          	lbu	x14,1(x17)
40001bf0:	00680333          	add	x6,x16,x6
40001bf4:	02e00813          	addi	x16,x0,46
40001bf8:	bf030423          	sb	x16,-1048(x6)
40001bfc:	00200613          	addi	x12,x0,2
40001c00:	300708e3          	beq	x14,x0,40002710 <ee_printf+0xe40>
40001c04:	06300813          	addi	x16,x0,99
40001c08:	70e850e3          	bge	x16,x14,40002b08 <ee_printf+0x1238>
40001c0c:	06400e13          	addi	x28,x0,100
40001c10:	03c76f33          	rem	x30,x14,x28
40001c14:	00a00e93          	addi	x29,x0,10
40001c18:	42060613          	addi	x12,x12,1056
40001c1c:	01010f93          	addi	x31,x2,16
40001c20:	01f60fb3          	add	x31,x12,x31
40001c24:	00358613          	addi	x12,x11,3
40001c28:	00002817          	auipc	x16,0x2
40001c2c:	cd880813          	addi	x16,x16,-808 # 40003900 <Func_3+0x1c>
40001c30:	03c74733          	div	x14,x14,x28
40001c34:	03df45b3          	div	x11,x30,x29
40001c38:	00e80733          	add	x14,x16,x14
40001c3c:	00074703          	lbu	x14,0(x14)
40001c40:	beef8423          	sb	x14,-1048(x31)
40001c44:	00b80733          	add	x14,x16,x11
40001c48:	00074583          	lbu	x11,0(x14)
40001c4c:	03df6733          	rem	x14,x30,x29
40001c50:	beb30523          	sb	x11,-1046(x6)
40001c54:	00e80733          	add	x14,x16,x14
40001c58:	00074803          	lbu	x16,0(x14)
40001c5c:	01010593          	addi	x11,x2,16
40001c60:	42060713          	addi	x14,x12,1056
40001c64:	00b705b3          	add	x11,x14,x11
40001c68:	00160713          	addi	x14,x12,1
40001c6c:	bf058423          	sb	x16,-1048(x11)
40001c70:	0028c603          	lbu	x12,2(x17)
40001c74:	42070593          	addi	x11,x14,1056
40001c78:	01010813          	addi	x16,x2,16
40001c7c:	01058333          	add	x6,x11,x16
40001c80:	02e00593          	addi	x11,x0,46
40001c84:	beb30423          	sb	x11,-1048(x6)
40001c88:	00170593          	addi	x11,x14,1
40001c8c:	2a060ee3          	beq	x12,x0,40002748 <ee_printf+0xe78>
40001c90:	06300813          	addi	x16,x0,99
40001c94:	62c85ce3          	bge	x16,x12,40002acc <ee_printf+0x11fc>
40001c98:	06400e13          	addi	x28,x0,100
40001c9c:	42058593          	addi	x11,x11,1056
40001ca0:	01010f93          	addi	x31,x2,16
40001ca4:	01f58fb3          	add	x31,x11,x31
40001ca8:	00370593          	addi	x11,x14,3
40001cac:	00a00e93          	addi	x29,x0,10
40001cb0:	00002817          	auipc	x16,0x2
40001cb4:	c5080813          	addi	x16,x16,-944 # 40003900 <Func_3+0x1c>
40001cb8:	03c66f33          	rem	x30,x12,x28
40001cbc:	03c64733          	div	x14,x12,x28
40001cc0:	03df4633          	div	x12,x30,x29
40001cc4:	00e80733          	add	x14,x16,x14
40001cc8:	00074703          	lbu	x14,0(x14)
40001ccc:	beef8423          	sb	x14,-1048(x31)
40001cd0:	00c80733          	add	x14,x16,x12
40001cd4:	03df6633          	rem	x12,x30,x29
40001cd8:	00074703          	lbu	x14,0(x14)
40001cdc:	bee30523          	sb	x14,-1046(x6)
40001ce0:	00c80633          	add	x12,x16,x12
40001ce4:	00064803          	lbu	x16,0(x12)
40001ce8:	42058713          	addi	x14,x11,1056
40001cec:	01010613          	addi	x12,x2,16
40001cf0:	00c70633          	add	x12,x14,x12
40001cf4:	00158713          	addi	x14,x11,1
40001cf8:	bf060423          	sb	x16,-1048(x12)
40001cfc:	42070593          	addi	x11,x14,1056
40001d00:	0038c603          	lbu	x12,3(x17)
40001d04:	01010813          	addi	x16,x2,16
40001d08:	010588b3          	add	x17,x11,x16
40001d0c:	02e00593          	addi	x11,x0,46
40001d10:	beb88423          	sb	x11,-1048(x17)
40001d14:	00170593          	addi	x11,x14,1
40001d18:	260604e3          	beq	x12,x0,40002780 <ee_printf+0xeb0>
40001d1c:	06300813          	addi	x16,x0,99
40001d20:	56c858e3          	bge	x16,x12,40002a90 <ee_printf+0x11c0>
40001d24:	06400313          	addi	x6,x0,100
40001d28:	42058593          	addi	x11,x11,1056
40001d2c:	01010f13          	addi	x30,x2,16
40001d30:	01e58f33          	add	x30,x11,x30
40001d34:	00370593          	addi	x11,x14,3
40001d38:	00a00e13          	addi	x28,x0,10
40001d3c:	00002817          	auipc	x16,0x2
40001d40:	bc480813          	addi	x16,x16,-1084 # 40003900 <Func_3+0x1c>
40001d44:	02666eb3          	rem	x29,x12,x6
40001d48:	02664733          	div	x14,x12,x6
40001d4c:	03cec633          	div	x12,x29,x28
40001d50:	00e80733          	add	x14,x16,x14
40001d54:	00074703          	lbu	x14,0(x14)
40001d58:	beef0423          	sb	x14,-1048(x30)
40001d5c:	00c80733          	add	x14,x16,x12
40001d60:	03cee633          	rem	x12,x29,x28
40001d64:	00074703          	lbu	x14,0(x14)
40001d68:	bee88523          	sb	x14,-1046(x17)
40001d6c:	00c80633          	add	x12,x16,x12
40001d70:	00064803          	lbu	x16,0(x12)
40001d74:	42058713          	addi	x14,x11,1056
40001d78:	01010613          	addi	x12,x2,16
40001d7c:	00c70633          	add	x12,x14,x12
40001d80:	bf060423          	sb	x16,-1048(x12)
40001d84:	00158713          	addi	x14,x11,1
40001d88:	0107f793          	andi	x15,x15,16
40001d8c:	0c079c63          	bne	x15,x0,40001e64 <ee_printf+0x594>
40001d90:	fff68813          	addi	x16,x13,-1
40001d94:	72d75ce3          	bge	x14,x13,40002ccc <ee_printf+0x13fc>
40001d98:	40e68333          	sub	x6,x13,x14
40001d9c:	40a005b3          	sub	x11,x0,x10
40001da0:	fff30893          	addi	x17,x6,-1
40001da4:	00500613          	addi	x12,x0,5
40001da8:	0035f793          	andi	x15,x11,3
40001dac:	731678e3          	bgeu	x12,x17,40002cdc <ee_printf+0x140c>
40001db0:	00050613          	addi	x12,x10,0
40001db4:	02078863          	beq	x15,x0,40001de4 <ee_printf+0x514>
40001db8:	02000813          	addi	x16,x0,32
40001dbc:	01050023          	sb	x16,0(x10)
40001dc0:	0025f593          	andi	x11,x11,2
40001dc4:	68058ee3          	beq	x11,x0,40002c60 <ee_printf+0x1390>
40001dc8:	fff50613          	addi	x12,x10,-1
40001dcc:	010500a3          	sb	x16,1(x10)
40001dd0:	00367613          	andi	x12,x12,3
40001dd4:	600618e3          	bne	x12,x0,40002be4 <ee_printf+0x1314>
40001dd8:	01050123          	sb	x16,2(x10)
40001ddc:	00350613          	addi	x12,x10,3
40001de0:	ffc68813          	addi	x16,x13,-4
40001de4:	40f308b3          	sub	x17,x6,x15
40001de8:	ffc8f593          	andi	x11,x17,-4
40001dec:	00f507b3          	add	x15,x10,x15
40001df0:	202026b7          	lui	x13,0x20202
40001df4:	00f585b3          	add	x11,x11,x15
40001df8:	02068693          	addi	x13,x13,32 # 20202020 <__heap_size+0x20201020>
40001dfc:	00d7a023          	sw	x13,0(x15)
40001e00:	00478793          	addi	x15,x15,4
40001e04:	fef59ce3          	bne	x11,x15,40001dfc <ee_printf+0x52c>
40001e08:	ffc8f693          	andi	x13,x17,-4
40001e0c:	0038f893          	andi	x17,x17,3
40001e10:	00d607b3          	add	x15,x12,x13
40001e14:	40d80833          	sub	x16,x16,x13
40001e18:	04088263          	beq	x17,x0,40001e5c <ee_printf+0x58c>
40001e1c:	02000693          	addi	x13,x0,32
40001e20:	00d78023          	sb	x13,0(x15)
40001e24:	fff80613          	addi	x12,x16,-1
40001e28:	03075a63          	bge	x14,x16,40001e5c <ee_printf+0x58c>
40001e2c:	00d780a3          	sb	x13,1(x15)
40001e30:	ffe80593          	addi	x11,x16,-2
40001e34:	02c75463          	bge	x14,x12,40001e5c <ee_printf+0x58c>
40001e38:	00d78123          	sb	x13,2(x15)
40001e3c:	ffd80613          	addi	x12,x16,-3
40001e40:	00b75e63          	bge	x14,x11,40001e5c <ee_printf+0x58c>
40001e44:	00d781a3          	sb	x13,3(x15)
40001e48:	ffc80813          	addi	x16,x16,-4
40001e4c:	00c75863          	bge	x14,x12,40001e5c <ee_printf+0x58c>
40001e50:	00d78223          	sb	x13,4(x15)
40001e54:	01075463          	bge	x14,x16,40001e5c <ee_printf+0x58c>
40001e58:	00d782a3          	sb	x13,5(x15)
40001e5c:	00650533          	add	x10,x10,x6
40001e60:	fff70693          	addi	x13,x14,-1
40001e64:	00357793          	andi	x15,x10,3
40001e68:	360784e3          	beq	x15,x0,400029d0 <ee_printf+0x1100>
40001e6c:	01e14783          	lbu	x15,30(x2)
40001e70:	01814e03          	lbu	x28,24(x2)
40001e74:	01914303          	lbu	x6,25(x2)
40001e78:	01a14883          	lbu	x17,26(x2)
40001e7c:	01b14803          	lbu	x16,27(x2)
40001e80:	01c14583          	lbu	x11,28(x2)
40001e84:	01d14603          	lbu	x12,29(x2)
40001e88:	00f50323          	sb	x15,6(x10)
40001e8c:	01c50023          	sb	x28,0(x10)
40001e90:	006500a3          	sb	x6,1(x10)
40001e94:	01150123          	sb	x17,2(x10)
40001e98:	010501a3          	sb	x16,3(x10)
40001e9c:	00b50223          	sb	x11,4(x10)
40001ea0:	00c502a3          	sb	x12,5(x10)
40001ea4:	00700793          	addi	x15,x0,7
40001ea8:	06f70e63          	beq	x14,x15,40001f24 <ee_printf+0x654>
40001eac:	01f14603          	lbu	x12,31(x2)
40001eb0:	00800793          	addi	x15,x0,8
40001eb4:	00c503a3          	sb	x12,7(x10)
40001eb8:	06f70663          	beq	x14,x15,40001f24 <ee_printf+0x654>
40001ebc:	02014603          	lbu	x12,32(x2)
40001ec0:	00900793          	addi	x15,x0,9
40001ec4:	00c50423          	sb	x12,8(x10)
40001ec8:	04f70e63          	beq	x14,x15,40001f24 <ee_printf+0x654>
40001ecc:	02114603          	lbu	x12,33(x2)
40001ed0:	00a00793          	addi	x15,x0,10
40001ed4:	00c504a3          	sb	x12,9(x10)
40001ed8:	04f70663          	beq	x14,x15,40001f24 <ee_printf+0x654>
40001edc:	02214603          	lbu	x12,34(x2)
40001ee0:	00b00793          	addi	x15,x0,11
40001ee4:	00c50523          	sb	x12,10(x10)
40001ee8:	02f70e63          	beq	x14,x15,40001f24 <ee_printf+0x654>
40001eec:	02314603          	lbu	x12,35(x2)
40001ef0:	00c00793          	addi	x15,x0,12
40001ef4:	00c505a3          	sb	x12,11(x10)
40001ef8:	02f70663          	beq	x14,x15,40001f24 <ee_printf+0x654>
40001efc:	02414603          	lbu	x12,36(x2)
40001f00:	00d00793          	addi	x15,x0,13
40001f04:	00c50623          	sb	x12,12(x10)
40001f08:	00f70e63          	beq	x14,x15,40001f24 <ee_printf+0x654>
40001f0c:	02514603          	lbu	x12,37(x2)
40001f10:	00f00793          	addi	x15,x0,15
40001f14:	00c506a3          	sb	x12,13(x10)
40001f18:	00f71663          	bne	x14,x15,40001f24 <ee_printf+0x654>
40001f1c:	02614783          	lbu	x15,38(x2)
40001f20:	00f50723          	sb	x15,14(x10)
40001f24:	00e508b3          	add	x17,x10,x14
40001f28:	fff68313          	addi	x6,x13,-1
40001f2c:	52d750e3          	bge	x14,x13,40002c4c <ee_printf+0x137c>
40001f30:	40e68833          	sub	x16,x13,x14
40001f34:	41100633          	sub	x12,x0,x17
40001f38:	fff80e13          	addi	x28,x16,-1
40001f3c:	00500593          	addi	x11,x0,5
40001f40:	00367793          	andi	x15,x12,3
40001f44:	07c5f863          	bgeu	x11,x28,40001fb4 <ee_printf+0x6e4>
40001f48:	02078863          	beq	x15,x0,40001f78 <ee_printf+0x6a8>
40001f4c:	02000593          	addi	x11,x0,32
40001f50:	00b88023          	sb	x11,0(x17)
40001f54:	00267613          	andi	x12,x12,2
40001f58:	3e0606e3          	beq	x12,x0,40002b44 <ee_printf+0x1274>
40001f5c:	fff88613          	addi	x12,x17,-1
40001f60:	00b880a3          	sb	x11,1(x17)
40001f64:	00367613          	andi	x12,x12,3
40001f68:	4c0616e3          	bne	x12,x0,40002c34 <ee_printf+0x1364>
40001f6c:	00b88123          	sb	x11,2(x17)
40001f70:	ffc68313          	addi	x6,x13,-4
40001f74:	00388893          	addi	x17,x17,3
40001f78:	40f80833          	sub	x16,x16,x15
40001f7c:	00e787b3          	add	x15,x15,x14
40001f80:	00f507b3          	add	x15,x10,x15
40001f84:	ffc87593          	andi	x11,x16,-4
40001f88:	20202637          	lui	x12,0x20202
40001f8c:	00f585b3          	add	x11,x11,x15
40001f90:	02060613          	addi	x12,x12,32 # 20202020 <__heap_size+0x20201020>
40001f94:	00c7a023          	sw	x12,0(x15)
40001f98:	00478793          	addi	x15,x15,4
40001f9c:	feb79ce3          	bne	x15,x11,40001f94 <ee_printf+0x6c4>
40001fa0:	ffc87793          	andi	x15,x16,-4
40001fa4:	00387813          	andi	x16,x16,3
40001fa8:	00f888b3          	add	x17,x17,x15
40001fac:	40f30333          	sub	x6,x6,x15
40001fb0:	04080263          	beq	x16,x0,40001ff4 <ee_printf+0x724>
40001fb4:	02000613          	addi	x12,x0,32
40001fb8:	00c88023          	sb	x12,0(x17)
40001fbc:	fff30593          	addi	x11,x6,-1
40001fc0:	02675a63          	bge	x14,x6,40001ff4 <ee_printf+0x724>
40001fc4:	00c880a3          	sb	x12,1(x17)
40001fc8:	ffe30793          	addi	x15,x6,-2
40001fcc:	02b75463          	bge	x14,x11,40001ff4 <ee_printf+0x724>
40001fd0:	00c88123          	sb	x12,2(x17)
40001fd4:	ffd30593          	addi	x11,x6,-3
40001fd8:	00f75e63          	bge	x14,x15,40001ff4 <ee_printf+0x724>
40001fdc:	00c881a3          	sb	x12,3(x17)
40001fe0:	ffc30793          	addi	x15,x6,-4
40001fe4:	00b75863          	bge	x14,x11,40001ff4 <ee_printf+0x724>
40001fe8:	00c88223          	sb	x12,4(x17)
40001fec:	00f75463          	bge	x14,x15,40001ff4 <ee_printf+0x724>
40001ff0:	00c882a3          	sb	x12,5(x17)
40001ff4:	00d50533          	add	x10,x10,x13
40001ff8:	01c0006f          	jal	x0,40002014 <ee_printf+0x744>
40001ffc:	0407e793          	ori	x15,x15,64
40002000:	01000613          	addi	x12,x0,16
40002004:	00490813          	addi	x16,x18,4
40002008:	00092583          	lw	x11,0(x18)
4000200c:	00080913          	addi	x18,x16,0
40002010:	9d8ff0ef          	jal	x1,400011e8 <number>
40002014:	001cc783          	lbu	x15,1(x25)
40002018:	001c8313          	addi	x6,x25,1
4000201c:	940792e3          	bne	x15,x0,40001960 <ee_printf+0x90>
40002020:	959ff06f          	jal	x0,40001978 <ee_printf+0xa8>
40002024:	00060c93          	addi	x25,x12,0
40002028:	0107f793          	andi	x15,x15,16
4000202c:	00490813          	addi	x16,x18,4
40002030:	001c8313          	addi	x6,x25,1
40002034:	76078a63          	beq	x15,x0,400027a8 <ee_printf+0xed8>
40002038:	00092783          	lw	x15,0(x18)
4000203c:	fff68e13          	addi	x28,x13,-1
40002040:	00150893          	addi	x17,x10,1
40002044:	00f50023          	sb	x15,0(x10)
40002048:	51c050e3          	bge	x0,x28,40002d48 <ee_printf+0x1478>
4000204c:	41100733          	sub	x14,x0,x17
40002050:	ffe68613          	addi	x12,x13,-2
40002054:	00500e93          	addi	x29,x0,5
40002058:	000e0593          	addi	x11,x28,0
4000205c:	00377793          	andi	x15,x14,3
40002060:	06ced663          	bge	x29,x12,400020cc <ee_printf+0x7fc>
40002064:	02078663          	beq	x15,x0,40002090 <ee_printf+0x7c0>
40002068:	02000e13          	addi	x28,x0,32
4000206c:	01c500a3          	sb	x28,1(x10)
40002070:	00277713          	andi	x14,x14,2
40002074:	3a070ae3          	beq	x14,x0,40002c28 <ee_printf+0x1358>
40002078:	01c50123          	sb	x28,2(x10)
4000207c:	00357713          	andi	x14,x10,3
40002080:	3c0710e3          	bne	x14,x0,40002c40 <ee_printf+0x1370>
40002084:	01c501a3          	sb	x28,3(x10)
40002088:	00450893          	addi	x17,x10,4
4000208c:	ffc68e13          	addi	x28,x13,-4
40002090:	40f585b3          	sub	x11,x11,x15
40002094:	00178793          	addi	x15,x15,1
40002098:	00f507b3          	add	x15,x10,x15
4000209c:	ffc5f613          	andi	x12,x11,-4
400020a0:	20202737          	lui	x14,0x20202
400020a4:	00f60633          	add	x12,x12,x15
400020a8:	02070713          	addi	x14,x14,32 # 20202020 <__heap_size+0x20201020>
400020ac:	00e7a023          	sw	x14,0(x15)
400020b0:	00478793          	addi	x15,x15,4
400020b4:	fec79ce3          	bne	x15,x12,400020ac <ee_printf+0x7dc>
400020b8:	ffc5f793          	andi	x15,x11,-4
400020bc:	0035f593          	andi	x11,x11,3
400020c0:	00f888b3          	add	x17,x17,x15
400020c4:	40fe0e33          	sub	x28,x28,x15
400020c8:	04058463          	beq	x11,x0,40002110 <ee_printf+0x840>
400020cc:	02000793          	addi	x15,x0,32
400020d0:	00f88023          	sb	x15,0(x17)
400020d4:	00100713          	addi	x14,x0,1
400020d8:	03c75c63          	bge	x14,x28,40002110 <ee_printf+0x840>
400020dc:	00f880a3          	sb	x15,1(x17)
400020e0:	00200713          	addi	x14,x0,2
400020e4:	02ee0663          	beq	x28,x14,40002110 <ee_printf+0x840>
400020e8:	00f88123          	sb	x15,2(x17)
400020ec:	00300713          	addi	x14,x0,3
400020f0:	02ee0063          	beq	x28,x14,40002110 <ee_printf+0x840>
400020f4:	00f881a3          	sb	x15,3(x17)
400020f8:	00400713          	addi	x14,x0,4
400020fc:	00ee0a63          	beq	x28,x14,40002110 <ee_printf+0x840>
40002100:	00f88223          	sb	x15,4(x17)
40002104:	00500713          	addi	x14,x0,5
40002108:	00ee0463          	beq	x28,x14,40002110 <ee_printf+0x840>
4000210c:	00f882a3          	sb	x15,5(x17)
40002110:	001cc783          	lbu	x15,1(x25)
40002114:	00d50533          	add	x10,x10,x13
40002118:	00080913          	addi	x18,x16,0
4000211c:	840792e3          	bne	x15,x0,40001960 <ee_printf+0x90>
40002120:	859ff06f          	jal	x0,40001978 <ee_printf+0xa8>
40002124:	00060c93          	addi	x25,x12,0
40002128:	00092583          	lw	x11,0(x18)
4000212c:	00490913          	addi	x18,x18,4
40002130:	76058663          	beq	x11,x0,4000289c <ee_printf+0xfcc>
40002134:	0005c603          	lbu	x12,0(x11)
40002138:	24060ee3          	beq	x12,x0,40002b94 <ee_printf+0x12c4>
4000213c:	24070ce3          	beq	x14,x0,40002b94 <ee_printf+0x12c4>
40002140:	00058613          	addi	x12,x11,0
40002144:	00c0006f          	jal	x0,40002150 <ee_printf+0x880>
40002148:	40e60833          	sub	x16,x12,x14
4000214c:	00b80863          	beq	x16,x11,4000215c <ee_printf+0x88c>
40002150:	00164803          	lbu	x16,1(x12)
40002154:	00160613          	addi	x12,x12,1
40002158:	fe0818e3          	bne	x16,x0,40002148 <ee_printf+0x878>
4000215c:	0107f793          	andi	x15,x15,16
40002160:	40b60633          	sub	x12,x12,x11
40002164:	74078263          	beq	x15,x0,400028a8 <ee_printf+0xfd8>
40002168:	08c05663          	bge	x0,x12,400021f4 <ee_printf+0x924>
4000216c:	fff60793          	addi	x15,x12,-1
40002170:	00600713          	addi	x14,x0,6
40002174:	02f770e3          	bgeu	x14,x15,40002994 <ee_printf+0x10c4>
40002178:	00a5e7b3          	or	x15,x11,x10
4000217c:	0037f793          	andi	x15,x15,3
40002180:	00079ae3          	bne	x15,x0,40002994 <ee_printf+0x10c4>
40002184:	00158793          	addi	x15,x11,1
40002188:	40f50733          	sub	x14,x10,x15
4000218c:	00373713          	sltiu	x14,x14,3
40002190:	000714e3          	bne	x14,x0,40002998 <ee_printf+0x10c8>
40002194:	ffc67893          	andi	x17,x12,-4
40002198:	00058793          	addi	x15,x11,0
4000219c:	00050713          	addi	x14,x10,0
400021a0:	00b888b3          	add	x17,x17,x11
400021a4:	0007a803          	lw	x16,0(x15)
400021a8:	00478793          	addi	x15,x15,4
400021ac:	00470713          	addi	x14,x14,4
400021b0:	ff072e23          	sw	x16,-4(x14)
400021b4:	fef898e3          	bne	x17,x15,400021a4 <ee_printf+0x8d4>
400021b8:	ffc67793          	andi	x15,x12,-4
400021bc:	00f585b3          	add	x11,x11,x15
400021c0:	00f50733          	add	x14,x10,x15
400021c4:	02f60663          	beq	x12,x15,400021f0 <ee_printf+0x920>
400021c8:	0005c883          	lbu	x17,0(x11)
400021cc:	00178813          	addi	x16,x15,1
400021d0:	01170023          	sb	x17,0(x14)
400021d4:	00c85e63          	bge	x16,x12,400021f0 <ee_printf+0x920>
400021d8:	0015c803          	lbu	x16,1(x11)
400021dc:	00278793          	addi	x15,x15,2
400021e0:	010700a3          	sb	x16,1(x14)
400021e4:	00c7d663          	bge	x15,x12,400021f0 <ee_printf+0x920>
400021e8:	0025c783          	lbu	x15,2(x11)
400021ec:	00f70123          	sb	x15,2(x14)
400021f0:	00c50533          	add	x10,x10,x12
400021f4:	fff68e13          	addi	x28,x13,-1
400021f8:	001c8313          	addi	x6,x25,1
400021fc:	2cd650e3          	bge	x12,x13,40002cbc <ee_printf+0x13ec>
40002200:	40c688b3          	sub	x17,x13,x12
40002204:	40a00733          	sub	x14,x0,x10
40002208:	fff88813          	addi	x16,x17,-1
4000220c:	00500593          	addi	x11,x0,5
40002210:	00377793          	andi	x15,x14,3
40002214:	2d05f8e3          	bgeu	x11,x16,40002ce4 <ee_printf+0x1414>
40002218:	00050813          	addi	x16,x10,0
4000221c:	04078063          	beq	x15,x0,4000225c <ee_printf+0x98c>
40002220:	02000593          	addi	x11,x0,32
40002224:	00b50023          	sb	x11,0(x10)
40002228:	00277713          	andi	x14,x14,2
4000222c:	00150813          	addi	x16,x10,1
40002230:	ffe68e13          	addi	x28,x13,-2
40002234:	02070463          	beq	x14,x0,4000225c <ee_printf+0x98c>
40002238:	fff50713          	addi	x14,x10,-1
4000223c:	00b500a3          	sb	x11,1(x10)
40002240:	00377713          	andi	x14,x14,3
40002244:	00250813          	addi	x16,x10,2
40002248:	ffd68e13          	addi	x28,x13,-3
4000224c:	00071863          	bne	x14,x0,4000225c <ee_printf+0x98c>
40002250:	00350813          	addi	x16,x10,3
40002254:	00b50123          	sb	x11,2(x10)
40002258:	ffc68e13          	addi	x28,x13,-4
4000225c:	40f885b3          	sub	x11,x17,x15
40002260:	ffc5f693          	andi	x13,x11,-4
40002264:	00f507b3          	add	x15,x10,x15
40002268:	20202737          	lui	x14,0x20202
4000226c:	00f686b3          	add	x13,x13,x15
40002270:	02070713          	addi	x14,x14,32 # 20202020 <__heap_size+0x20201020>
40002274:	00e7a023          	sw	x14,0(x15)
40002278:	00478793          	addi	x15,x15,4
4000227c:	fed79ce3          	bne	x15,x13,40002274 <ee_printf+0x9a4>
40002280:	ffc5f713          	andi	x14,x11,-4
40002284:	0035f593          	andi	x11,x11,3
40002288:	00e807b3          	add	x15,x16,x14
4000228c:	40ee0e33          	sub	x28,x28,x14
40002290:	04058263          	beq	x11,x0,400022d4 <ee_printf+0xa04>
40002294:	02000693          	addi	x13,x0,32
40002298:	00d78023          	sb	x13,0(x15)
4000229c:	fffe0593          	addi	x11,x28,-1
400022a0:	03c65a63          	bge	x12,x28,400022d4 <ee_printf+0xa04>
400022a4:	00d780a3          	sb	x13,1(x15)
400022a8:	ffee0713          	addi	x14,x28,-2
400022ac:	02b65463          	bge	x12,x11,400022d4 <ee_printf+0xa04>
400022b0:	00d78123          	sb	x13,2(x15)
400022b4:	ffde0593          	addi	x11,x28,-3
400022b8:	00e65e63          	bge	x12,x14,400022d4 <ee_printf+0xa04>
400022bc:	00d781a3          	sb	x13,3(x15)
400022c0:	ffce0713          	addi	x14,x28,-4
400022c4:	00b65863          	bge	x12,x11,400022d4 <ee_printf+0xa04>
400022c8:	00d78223          	sb	x13,4(x15)
400022cc:	00e65463          	bge	x12,x14,400022d4 <ee_printf+0xa04>
400022d0:	00d782a3          	sb	x13,5(x15)
400022d4:	001cc783          	lbu	x15,1(x25)
400022d8:	01150533          	add	x10,x10,x17
400022dc:	e8079263          	bne	x15,x0,40001960 <ee_printf+0x90>
400022e0:	e98ff06f          	jal	x0,40001978 <ee_printf+0xa8>
400022e4:	00060c93          	addi	x25,x12,0
400022e8:	fff00613          	addi	x12,x0,-1
400022ec:	4ac68863          	beq	x13,x12,4000279c <ee_printf+0xecc>
400022f0:	00092583          	lw	x11,0(x18)
400022f4:	01000613          	addi	x12,x0,16
400022f8:	00490913          	addi	x18,x18,4
400022fc:	eedfe0ef          	jal	x1,400011e8 <number>
40002300:	001cc783          	lbu	x15,1(x25)
40002304:	001c8313          	addi	x6,x25,1
40002308:	e4079c63          	bne	x15,x0,40001960 <ee_printf+0x90>
4000230c:	e6cff06f          	jal	x0,40001978 <ee_printf+0xa8>
40002310:	00000713          	addi	x14,x0,0
40002314:	00070313          	addi	x6,x14,0
40002318:	00231713          	slli	x14,x6,0x2
4000231c:	00670733          	add	x14,x14,x6
40002320:	00180813          	addi	x16,x16,1
40002324:	00171713          	slli	x14,x14,0x1
40002328:	00b70733          	add	x14,x14,x11
4000232c:	00084583          	lbu	x11,0(x16)
40002330:	fd070313          	addi	x6,x14,-48
40002334:	fd058613          	addi	x12,x11,-48
40002338:	0ff67613          	andi	x12,x12,255
4000233c:	fcc8fee3          	bgeu	x17,x12,40002318 <ee_printf+0xa48>
40002340:	00030713          	addi	x14,x6,0
40002344:	00080613          	addi	x12,x16,0
40002348:	f28ff06f          	jal	x0,40001a70 <ee_printf+0x1a0>
4000234c:	00092703          	lw	x14,0(x18)
40002350:	00264583          	lbu	x11,2(x12)
40002354:	00490913          	addi	x18,x18,4
40002358:	fff74813          	xori	x16,x14,-1
4000235c:	41f85813          	srai	x16,x16,0x1f
40002360:	01077733          	and	x14,x14,x16
40002364:	00260613          	addi	x12,x12,2
40002368:	f08ff06f          	jal	x0,40001a70 <ee_printf+0x1a0>
4000236c:	0407f593          	andi	x11,x15,64
40002370:	00001717          	auipc	x14,0x1
40002374:	59070713          	addi	x14,x14,1424 # 40003900 <Func_3+0x1c>
40002378:	00058663          	beq	x11,x0,40002384 <ee_printf+0xab4>
4000237c:	00001717          	auipc	x14,0x1
40002380:	5ac70713          	addi	x14,x14,1452 # 40003928 <Func_3+0x44>
40002384:	00092803          	lw	x16,0(x18)
40002388:	03a00593          	addi	x11,x0,58
4000238c:	00b10d23          	sb	x11,26(x2)
40002390:	00084883          	lbu	x17,0(x16)
40002394:	00184383          	lbu	x7,1(x16)
40002398:	00284f83          	lbu	x31,2(x16)
4000239c:	00384e83          	lbu	x29,3(x16)
400023a0:	00484303          	lbu	x6,4(x16)
400023a4:	00f8fe13          	andi	x28,x17,15
400023a8:	00584803          	lbu	x16,5(x16)
400023ac:	01c70e33          	add	x28,x14,x28
400023b0:	0048d893          	srli	x17,x17,0x4
400023b4:	000e4d83          	lbu	x27,0(x28)
400023b8:	011708b3          	add	x17,x14,x17
400023bc:	0043dc93          	srli	x25,x7,0x4
400023c0:	004fd293          	srli	x5,x31,0x4
400023c4:	004edf13          	srli	x30,x29,0x4
400023c8:	00435e13          	srli	x28,x6,0x4
400023cc:	00f3f393          	andi	x7,x7,15
400023d0:	00ffff93          	andi	x31,x31,15
400023d4:	00fefe93          	andi	x29,x29,15
400023d8:	00f37313          	andi	x6,x6,15
400023dc:	0008cd03          	lbu	x26,0(x17)
400023e0:	01970cb3          	add	x25,x14,x25
400023e4:	007703b3          	add	x7,x14,x7
400023e8:	005702b3          	add	x5,x14,x5
400023ec:	01f70fb3          	add	x31,x14,x31
400023f0:	01e70f33          	add	x30,x14,x30
400023f4:	01d70eb3          	add	x29,x14,x29
400023f8:	01c70e33          	add	x28,x14,x28
400023fc:	00670333          	add	x6,x14,x6
40002400:	00485893          	srli	x17,x16,0x4
40002404:	000ccc83          	lbu	x25,0(x25)
40002408:	0003c383          	lbu	x7,0(x7)
4000240c:	0002c283          	lbu	x5,0(x5)
40002410:	000fcf83          	lbu	x31,0(x31)
40002414:	000f4f03          	lbu	x30,0(x30)
40002418:	000ece83          	lbu	x29,0(x29)
4000241c:	000e4e03          	lbu	x28,0(x28)
40002420:	00034303          	lbu	x6,0(x6)
40002424:	011708b3          	add	x17,x14,x17
40002428:	0008c883          	lbu	x17,0(x17)
4000242c:	008d9d93          	slli	x27,x27,0x8
40002430:	01bd6d33          	or	x26,x26,x27
40002434:	00f87813          	andi	x16,x16,15
40002438:	01a11c23          	sh	x26,24(x2)
4000243c:	01910da3          	sb	x25,27(x2)
40002440:	00710e23          	sb	x7,28(x2)
40002444:	00b10ea3          	sb	x11,29(x2)
40002448:	00510f23          	sb	x5,30(x2)
4000244c:	01f10fa3          	sb	x31,31(x2)
40002450:	02b10023          	sb	x11,32(x2)
40002454:	03e100a3          	sb	x30,33(x2)
40002458:	03d10123          	sb	x29,34(x2)
4000245c:	02b101a3          	sb	x11,35(x2)
40002460:	03c10223          	sb	x28,36(x2)
40002464:	026102a3          	sb	x6,37(x2)
40002468:	02b10323          	sb	x11,38(x2)
4000246c:	01070733          	add	x14,x14,x16
40002470:	031103a3          	sb	x17,39(x2)
40002474:	00074703          	lbu	x14,0(x14)
40002478:	0107f793          	andi	x15,x15,16
4000247c:	00e12623          	sw	x14,12(x2)
40002480:	0e079063          	bne	x15,x0,40002560 <ee_printf+0xc90>
40002484:	01100793          	addi	x15,x0,17
40002488:	fff68593          	addi	x11,x13,-1
4000248c:	0ad7d4e3          	bge	x15,x13,40002d34 <ee_printf+0x1464>
40002490:	40a00833          	sub	x16,x0,x10
40002494:	fee68713          	addi	x14,x13,-18
40002498:	00500d93          	addi	x27,x0,5
4000249c:	fef68d13          	addi	x26,x13,-17
400024a0:	00387793          	andi	x15,x16,3
400024a4:	08edf4e3          	bgeu	x27,x14,40002d2c <ee_printf+0x145c>
400024a8:	00050713          	addi	x14,x10,0
400024ac:	02078863          	beq	x15,x0,400024dc <ee_printf+0xc0c>
400024b0:	02000593          	addi	x11,x0,32
400024b4:	00b50023          	sb	x11,0(x10)
400024b8:	00287813          	andi	x16,x16,2
400024bc:	020808e3          	beq	x16,x0,40002cec <ee_printf+0x141c>
400024c0:	fff50713          	addi	x14,x10,-1
400024c4:	00b500a3          	sb	x11,1(x10)
400024c8:	00377713          	andi	x14,x14,3
400024cc:	02071ce3          	bne	x14,x0,40002d04 <ee_printf+0x1434>
400024d0:	00b50123          	sb	x11,2(x10)
400024d4:	00350713          	addi	x14,x10,3
400024d8:	ffc68593          	addi	x11,x13,-4
400024dc:	40fd0db3          	sub	x27,x26,x15
400024e0:	ffcdf813          	andi	x16,x27,-4
400024e4:	00f507b3          	add	x15,x10,x15
400024e8:	202026b7          	lui	x13,0x20202
400024ec:	00f80833          	add	x16,x16,x15
400024f0:	02068693          	addi	x13,x13,32 # 20202020 <__heap_size+0x20201020>
400024f4:	00d7a023          	sw	x13,0(x15)
400024f8:	00478793          	addi	x15,x15,4
400024fc:	fef81ce3          	bne	x16,x15,400024f4 <ee_printf+0xc24>
40002500:	ffcdf793          	andi	x15,x27,-4
40002504:	003dfd93          	andi	x27,x27,3
40002508:	00f70733          	add	x14,x14,x15
4000250c:	40f585b3          	sub	x11,x11,x15
40002510:	040d8463          	beq	x27,x0,40002558 <ee_printf+0xc88>
40002514:	02000793          	addi	x15,x0,32
40002518:	00f70023          	sb	x15,0(x14)
4000251c:	01100693          	addi	x13,x0,17
40002520:	02b6dc63          	bge	x13,x11,40002558 <ee_printf+0xc88>
40002524:	00f700a3          	sb	x15,1(x14)
40002528:	01200693          	addi	x13,x0,18
4000252c:	02d58663          	beq	x11,x13,40002558 <ee_printf+0xc88>
40002530:	00f70123          	sb	x15,2(x14)
40002534:	01300693          	addi	x13,x0,19
40002538:	02d58063          	beq	x11,x13,40002558 <ee_printf+0xc88>
4000253c:	00f701a3          	sb	x15,3(x14)
40002540:	01400693          	addi	x13,x0,20
40002544:	00d58a63          	beq	x11,x13,40002558 <ee_printf+0xc88>
40002548:	00f70223          	sb	x15,4(x14)
4000254c:	01500693          	addi	x13,x0,21
40002550:	00d58463          	beq	x11,x13,40002558 <ee_printf+0xc88>
40002554:	00f702a3          	sb	x15,5(x14)
40002558:	01a50533          	add	x10,x10,x26
4000255c:	01000693          	addi	x13,x0,16
40002560:	00357793          	andi	x15,x10,3
40002564:	70079463          	bne	x15,x0,40002c6c <ee_printf+0x139c>
40002568:	01c12783          	lw	x15,28(x2)
4000256c:	00f52223          	sw	x15,4(x10)
40002570:	02012783          	lw	x15,32(x2)
40002574:	00f52423          	sw	x15,8(x10)
40002578:	01812783          	lw	x15,24(x2)
4000257c:	00f52023          	sw	x15,0(x10)
40002580:	02412783          	lw	x15,36(x2)
40002584:	00f52623          	sw	x15,12(x10)
40002588:	00c12783          	lw	x15,12(x2)
4000258c:	01150813          	addi	x16,x10,17
40002590:	fff68893          	addi	x17,x13,-1
40002594:	00f50823          	sb	x15,16(x10)
40002598:	01100793          	addi	x15,x0,17
4000259c:	72d7dc63          	bge	x15,x13,40002cd4 <ee_printf+0x1404>
400025a0:	41000733          	sub	x14,x0,x16
400025a4:	fee68593          	addi	x11,x13,-18
400025a8:	00500e13          	addi	x28,x0,5
400025ac:	fef68313          	addi	x6,x13,-17
400025b0:	00377793          	andi	x15,x14,3
400025b4:	06be7e63          	bgeu	x28,x11,40002630 <ee_printf+0xd60>
400025b8:	02078e63          	beq	x15,x0,400025f4 <ee_printf+0xd24>
400025bc:	02000593          	addi	x11,x0,32
400025c0:	00b508a3          	sb	x11,17(x10)
400025c4:	00277713          	andi	x14,x14,2
400025c8:	01250813          	addi	x16,x10,18
400025cc:	ffe68893          	addi	x17,x13,-2
400025d0:	02070263          	beq	x14,x0,400025f4 <ee_printf+0xd24>
400025d4:	00b50923          	sb	x11,18(x10)
400025d8:	00357713          	andi	x14,x10,3
400025dc:	01350813          	addi	x16,x10,19
400025e0:	ffd68893          	addi	x17,x13,-3
400025e4:	00071863          	bne	x14,x0,400025f4 <ee_printf+0xd24>
400025e8:	01450813          	addi	x16,x10,20
400025ec:	00b509a3          	sb	x11,19(x10)
400025f0:	ffc68893          	addi	x17,x13,-4
400025f4:	40f30333          	sub	x6,x6,x15
400025f8:	01178793          	addi	x15,x15,17
400025fc:	00f507b3          	add	x15,x10,x15
40002600:	ffc37593          	andi	x11,x6,-4
40002604:	20202737          	lui	x14,0x20202
40002608:	00f585b3          	add	x11,x11,x15
4000260c:	02070713          	addi	x14,x14,32 # 20202020 <__heap_size+0x20201020>
40002610:	00e7a023          	sw	x14,0(x15)
40002614:	00478793          	addi	x15,x15,4
40002618:	feb79ce3          	bne	x15,x11,40002610 <ee_printf+0xd40>
4000261c:	ffc37793          	andi	x15,x6,-4
40002620:	00337313          	andi	x6,x6,3
40002624:	00f80833          	add	x16,x16,x15
40002628:	40f888b3          	sub	x17,x17,x15
4000262c:	04030463          	beq	x6,x0,40002674 <ee_printf+0xda4>
40002630:	02000793          	addi	x15,x0,32
40002634:	00f80023          	sb	x15,0(x16)
40002638:	01100713          	addi	x14,x0,17
4000263c:	03175c63          	bge	x14,x17,40002674 <ee_printf+0xda4>
40002640:	00f800a3          	sb	x15,1(x16)
40002644:	01200713          	addi	x14,x0,18
40002648:	02e88663          	beq	x17,x14,40002674 <ee_printf+0xda4>
4000264c:	00f80123          	sb	x15,2(x16)
40002650:	01300713          	addi	x14,x0,19
40002654:	02e88063          	beq	x17,x14,40002674 <ee_printf+0xda4>
40002658:	00f801a3          	sb	x15,3(x16)
4000265c:	01400713          	addi	x14,x0,20
40002660:	00e88a63          	beq	x17,x14,40002674 <ee_printf+0xda4>
40002664:	00f80223          	sb	x15,4(x16)
40002668:	01500713          	addi	x14,x0,21
4000266c:	00e88463          	beq	x17,x14,40002674 <ee_printf+0xda4>
40002670:	00f802a3          	sb	x15,5(x16)
40002674:	00d50533          	add	x10,x10,x13
40002678:	00264783          	lbu	x15,2(x12)
4000267c:	00490913          	addi	x18,x18,4
40002680:	00260313          	addi	x6,x12,2
40002684:	ac079e63          	bne	x15,x0,40001960 <ee_printf+0x90>
40002688:	af0ff06f          	jal	x0,40001978 <ee_printf+0xa8>
4000268c:	06300613          	addi	x12,x0,99
40002690:	3ce65463          	bge	x12,x14,40002a58 <ee_printf+0x1188>
40002694:	06400313          	addi	x6,x0,100
40002698:	02676fb3          	rem	x31,x14,x6
4000269c:	00a00f13          	addi	x30,x0,10
400026a0:	00001817          	auipc	x16,0x1
400026a4:	26080813          	addi	x16,x16,608 # 40003900 <Func_3+0x1c>
400026a8:	00400613          	addi	x12,x0,4
400026ac:	00300593          	addi	x11,x0,3
400026b0:	00200e13          	addi	x28,x0,2
400026b4:	03efceb3          	div	x29,x31,x30
400026b8:	02674733          	div	x14,x14,x6
400026bc:	01d80333          	add	x6,x16,x29
400026c0:	00034e83          	lbu	x29,0(x6)
400026c4:	008e9e93          	slli	x29,x29,0x8
400026c8:	00e80733          	add	x14,x16,x14
400026cc:	00074303          	lbu	x6,0(x14)
400026d0:	03efe733          	rem	x14,x31,x30
400026d4:	01d36333          	or	x6,x6,x29
400026d8:	00611c23          	sh	x6,24(x2)
400026dc:	00e80733          	add	x14,x16,x14
400026e0:	00074703          	lbu	x14,0(x14)
400026e4:	420e0813          	addi	x16,x28,1056
400026e8:	01010313          	addi	x6,x2,16
400026ec:	00680e33          	add	x28,x16,x6
400026f0:	beee0423          	sb	x14,-1048(x28)
400026f4:	42058813          	addi	x16,x11,1056
400026f8:	01010313          	addi	x6,x2,16
400026fc:	0018c703          	lbu	x14,1(x17)
40002700:	00680333          	add	x6,x16,x6
40002704:	02e00813          	addi	x16,x0,46
40002708:	bf030423          	sb	x16,-1048(x6)
4000270c:	ce071c63          	bne	x14,x0,40001c04 <ee_printf+0x334>
40002710:	42060713          	addi	x14,x12,1056
40002714:	01010613          	addi	x12,x2,16
40002718:	00c70633          	add	x12,x14,x12
4000271c:	00258713          	addi	x14,x11,2
40002720:	03000593          	addi	x11,x0,48
40002724:	beb60423          	sb	x11,-1048(x12)
40002728:	01010813          	addi	x16,x2,16
4000272c:	42070593          	addi	x11,x14,1056
40002730:	0028c603          	lbu	x12,2(x17)
40002734:	01058333          	add	x6,x11,x16
40002738:	02e00593          	addi	x11,x0,46
4000273c:	beb30423          	sb	x11,-1048(x6)
40002740:	00170593          	addi	x11,x14,1
40002744:	d4061663          	bne	x12,x0,40001c90 <ee_printf+0x3c0>
40002748:	42058613          	addi	x12,x11,1056
4000274c:	01010593          	addi	x11,x2,16
40002750:	00b60633          	add	x12,x12,x11
40002754:	00270713          	addi	x14,x14,2
40002758:	03000593          	addi	x11,x0,48
4000275c:	beb60423          	sb	x11,-1048(x12)
40002760:	01010813          	addi	x16,x2,16
40002764:	42070593          	addi	x11,x14,1056
40002768:	0038c603          	lbu	x12,3(x17)
4000276c:	010588b3          	add	x17,x11,x16
40002770:	02e00593          	addi	x11,x0,46
40002774:	beb88423          	sb	x11,-1048(x17)
40002778:	00170593          	addi	x11,x14,1
4000277c:	da061063          	bne	x12,x0,40001d1c <ee_printf+0x44c>
40002780:	42058613          	addi	x12,x11,1056
40002784:	01010593          	addi	x11,x2,16
40002788:	00b60633          	add	x12,x12,x11
4000278c:	03000593          	addi	x11,x0,48
40002790:	00270713          	addi	x14,x14,2
40002794:	beb60423          	sb	x11,-1048(x12)
40002798:	df0ff06f          	jal	x0,40001d88 <ee_printf+0x4b8>
4000279c:	0017e793          	ori	x15,x15,1
400027a0:	00800693          	addi	x13,x0,8
400027a4:	b4dff06f          	jal	x0,400022f0 <ee_printf+0xa20>
400027a8:	00100793          	addi	x15,x0,1
400027ac:	44d7de63          	bge	x15,x13,40002c08 <ee_printf+0x1338>
400027b0:	fff68613          	addi	x12,x13,-1
400027b4:	40a005b3          	sub	x11,x0,x10
400027b8:	ffe68893          	addi	x17,x13,-2
400027bc:	00500713          	addi	x14,x0,5
400027c0:	00060e93          	addi	x29,x12,0
400027c4:	0035f793          	andi	x15,x11,3
400027c8:	55175a63          	bge	x14,x17,40002d1c <ee_printf+0x144c>
400027cc:	00050713          	addi	x14,x10,0
400027d0:	02078863          	beq	x15,x0,40002800 <ee_printf+0xf30>
400027d4:	02000613          	addi	x12,x0,32
400027d8:	00c50023          	sb	x12,0(x10)
400027dc:	0025f593          	andi	x11,x11,2
400027e0:	50058c63          	beq	x11,x0,40002cf8 <ee_printf+0x1428>
400027e4:	fff50713          	addi	x14,x10,-1
400027e8:	00c500a3          	sb	x12,1(x10)
400027ec:	00377713          	andi	x14,x14,3
400027f0:	52071063          	bne	x14,x0,40002d10 <ee_printf+0x1440>
400027f4:	00c50123          	sb	x12,2(x10)
400027f8:	00350713          	addi	x14,x10,3
400027fc:	ffc68613          	addi	x12,x13,-4
40002800:	40fe85b3          	sub	x11,x29,x15
40002804:	ffc5fe13          	andi	x28,x11,-4
40002808:	00f507b3          	add	x15,x10,x15
4000280c:	202028b7          	lui	x17,0x20202
40002810:	00fe0e33          	add	x28,x28,x15
40002814:	02088893          	addi	x17,x17,32 # 20202020 <__heap_size+0x20201020>
40002818:	0117a023          	sw	x17,0(x15)
4000281c:	00478793          	addi	x15,x15,4
40002820:	fefe1ce3          	bne	x28,x15,40002818 <ee_printf+0xf48>
40002824:	ffc5f893          	andi	x17,x11,-4
40002828:	0035f593          	andi	x11,x11,3
4000282c:	011707b3          	add	x15,x14,x17
40002830:	41160633          	sub	x12,x12,x17
40002834:	04058463          	beq	x11,x0,4000287c <ee_printf+0xfac>
40002838:	02000713          	addi	x14,x0,32
4000283c:	00e78023          	sb	x14,0(x15)
40002840:	00100593          	addi	x11,x0,1
40002844:	02c5dc63          	bge	x11,x12,4000287c <ee_printf+0xfac>
40002848:	00e780a3          	sb	x14,1(x15)
4000284c:	00200593          	addi	x11,x0,2
40002850:	02b60663          	beq	x12,x11,4000287c <ee_printf+0xfac>
40002854:	00e78123          	sb	x14,2(x15)
40002858:	00300593          	addi	x11,x0,3
4000285c:	02b60063          	beq	x12,x11,4000287c <ee_printf+0xfac>
40002860:	00e781a3          	sb	x14,3(x15)
40002864:	00400593          	addi	x11,x0,4
40002868:	00b60a63          	beq	x12,x11,4000287c <ee_printf+0xfac>
4000286c:	00e78223          	sb	x14,4(x15)
40002870:	00500593          	addi	x11,x0,5
40002874:	00b60463          	beq	x12,x11,4000287c <ee_printf+0xfac>
40002878:	00e782a3          	sb	x14,5(x15)
4000287c:	00092783          	lw	x15,0(x18)
40002880:	01d50eb3          	add	x29,x10,x29
40002884:	00d50533          	add	x10,x10,x13
40002888:	00fe8023          	sb	x15,0(x29)
4000288c:	001cc783          	lbu	x15,1(x25)
40002890:	00080913          	addi	x18,x16,0
40002894:	8c079663          	bne	x15,x0,40001960 <ee_printf+0x90>
40002898:	8e0ff06f          	jal	x0,40001978 <ee_printf+0xa8>
4000289c:	00001597          	auipc	x11,0x1
400028a0:	0b458593          	addi	x11,x11,180 # 40003950 <Func_3+0x6c>
400028a4:	899ff06f          	jal	x0,4000213c <ee_printf+0x86c>
400028a8:	fff68713          	addi	x14,x13,-1
400028ac:	34d65a63          	bge	x12,x13,40002c00 <ee_printf+0x1330>
400028b0:	40c68e33          	sub	x28,x13,x12
400028b4:	40a008b3          	sub	x17,x0,x10
400028b8:	fffe0313          	addi	x6,x28,-1
400028bc:	00500813          	addi	x16,x0,5
400028c0:	0038f793          	andi	x15,x17,3
400028c4:	46687063          	bgeu	x16,x6,40002d24 <ee_printf+0x1454>
400028c8:	00050813          	addi	x16,x10,0
400028cc:	02078c63          	beq	x15,x0,40002904 <ee_printf+0x1034>
400028d0:	02000313          	addi	x6,x0,32
400028d4:	00650023          	sb	x6,0(x10)
400028d8:	0028f893          	andi	x17,x17,2
400028dc:	00150813          	addi	x16,x10,1
400028e0:	ffe68713          	addi	x14,x13,-2
400028e4:	02088063          	beq	x17,x0,40002904 <ee_printf+0x1034>
400028e8:	fff50713          	addi	x14,x10,-1
400028ec:	006500a3          	sb	x6,1(x10)
400028f0:	00377713          	andi	x14,x14,3
400028f4:	44071463          	bne	x14,x0,40002d3c <ee_printf+0x146c>
400028f8:	00350813          	addi	x16,x10,3
400028fc:	00650123          	sb	x6,2(x10)
40002900:	ffc68713          	addi	x14,x13,-4
40002904:	40fe06b3          	sub	x13,x28,x15
40002908:	ffc6f313          	andi	x6,x13,-4
4000290c:	00f507b3          	add	x15,x10,x15
40002910:	202028b7          	lui	x17,0x20202
40002914:	00f30333          	add	x6,x6,x15
40002918:	02088893          	addi	x17,x17,32 # 20202020 <__heap_size+0x20201020>
4000291c:	0117a023          	sw	x17,0(x15)
40002920:	00478793          	addi	x15,x15,4
40002924:	fef31ce3          	bne	x6,x15,4000291c <ee_printf+0x104c>
40002928:	ffc6f893          	andi	x17,x13,-4
4000292c:	0036f693          	andi	x13,x13,3
40002930:	011807b3          	add	x15,x16,x17
40002934:	41170733          	sub	x14,x14,x17
40002938:	04068263          	beq	x13,x0,4000297c <ee_printf+0x10ac>
4000293c:	02000693          	addi	x13,x0,32
40002940:	00d78023          	sb	x13,0(x15)
40002944:	fff70813          	addi	x16,x14,-1
40002948:	02e65a63          	bge	x12,x14,4000297c <ee_printf+0x10ac>
4000294c:	00d780a3          	sb	x13,1(x15)
40002950:	ffe70893          	addi	x17,x14,-2
40002954:	03065463          	bge	x12,x16,4000297c <ee_printf+0x10ac>
40002958:	00d78123          	sb	x13,2(x15)
4000295c:	ffd70813          	addi	x16,x14,-3
40002960:	01165e63          	bge	x12,x17,4000297c <ee_printf+0x10ac>
40002964:	00d781a3          	sb	x13,3(x15)
40002968:	ffc70713          	addi	x14,x14,-4
4000296c:	01065863          	bge	x12,x16,4000297c <ee_printf+0x10ac>
40002970:	00d78223          	sb	x13,4(x15)
40002974:	00e65463          	bge	x12,x14,4000297c <ee_printf+0x10ac>
40002978:	00d782a3          	sb	x13,5(x15)
4000297c:	01c50533          	add	x10,x10,x28
40002980:	fff60693          	addi	x13,x12,-1
40002984:	fe4ff06f          	jal	x0,40002168 <ee_printf+0x898>
40002988:	0027e793          	ori	x15,x15,2
4000298c:	00a00613          	addi	x12,x0,10
40002990:	e74ff06f          	jal	x0,40002004 <ee_printf+0x734>
40002994:	00158793          	addi	x15,x11,1
40002998:	00c585b3          	add	x11,x11,x12
4000299c:	00050713          	addi	x14,x10,0
400029a0:	0080006f          	jal	x0,400029a8 <ee_printf+0x10d8>
400029a4:	00178793          	addi	x15,x15,1
400029a8:	fff7c803          	lbu	x16,-1(x15)
400029ac:	00170713          	addi	x14,x14,1
400029b0:	ff070fa3          	sb	x16,-1(x14)
400029b4:	feb798e3          	bne	x15,x11,400029a4 <ee_printf+0x10d4>
400029b8:	839ff06f          	jal	x0,400021f0 <ee_printf+0x920>
400029bc:	00000513          	addi	x10,x0,0
400029c0:	828ff06f          	jal	x0,400019e8 <ee_printf+0x118>
400029c4:	03010a13          	addi	x20,x2,48
400029c8:	000a0513          	addi	x10,x20,0
400029cc:	fadfe06f          	jal	x0,40001978 <ee_printf+0xa8>
400029d0:	01812583          	lw	x11,24(x2)
400029d4:	00275793          	srli	x15,x14,0x2
400029d8:	00100613          	addi	x12,x0,1
400029dc:	00b52023          	sw	x11,0(x10)
400029e0:	26c78a63          	beq	x15,x12,40002c54 <ee_printf+0x1384>
400029e4:	01c12583          	lw	x11,28(x2)
400029e8:	00300613          	addi	x12,x0,3
400029ec:	00b52223          	sw	x11,4(x10)
400029f0:	00c79663          	bne	x15,x12,400029fc <ee_printf+0x112c>
400029f4:	02012783          	lw	x15,32(x2)
400029f8:	00f52423          	sw	x15,8(x10)
400029fc:	00377793          	andi	x15,x14,3
40002a00:	d2078263          	beq	x15,x0,40001f24 <ee_printf+0x654>
40002a04:	ffc77793          	andi	x15,x14,-4
40002a08:	00f50633          	add	x12,x10,x15
40002a0c:	01010813          	addi	x16,x2,16
40002a10:	42078593          	addi	x11,x15,1056
40002a14:	010585b3          	add	x11,x11,x16
40002a18:	be85c803          	lbu	x16,-1048(x11)
40002a1c:	00178593          	addi	x11,x15,1
40002a20:	01060023          	sb	x16,0(x12)
40002a24:	d0e5d063          	bge	x11,x14,40001f24 <ee_printf+0x654>
40002a28:	42178593          	addi	x11,x15,1057
40002a2c:	01010813          	addi	x16,x2,16
40002a30:	010585b3          	add	x11,x11,x16
40002a34:	be85c583          	lbu	x11,-1048(x11)
40002a38:	00278793          	addi	x15,x15,2
40002a3c:	00b600a3          	sb	x11,1(x12)
40002a40:	cee7d263          	bge	x15,x14,40001f24 <ee_printf+0x654>
40002a44:	42078793          	addi	x15,x15,1056
40002a48:	010787b3          	add	x15,x15,x16
40002a4c:	be87c783          	lbu	x15,-1048(x15)
40002a50:	00f60123          	sb	x15,2(x12)
40002a54:	cd0ff06f          	jal	x0,40001f24 <ee_printf+0x654>
40002a58:	00900613          	addi	x12,x0,9
40002a5c:	10e65463          	bge	x12,x14,40002b64 <ee_printf+0x1294>
40002a60:	00a00e93          	addi	x29,x0,10
40002a64:	03d74333          	div	x6,x14,x29
40002a68:	00001817          	auipc	x16,0x1
40002a6c:	e9880813          	addi	x16,x16,-360 # 40003900 <Func_3+0x1c>
40002a70:	00300613          	addi	x12,x0,3
40002a74:	00200593          	addi	x11,x0,2
40002a78:	00100e13          	addi	x28,x0,1
40002a7c:	00680333          	add	x6,x16,x6
40002a80:	00034303          	lbu	x6,0(x6)
40002a84:	03d76733          	rem	x14,x14,x29
40002a88:	00610c23          	sb	x6,24(x2)
40002a8c:	c51ff06f          	jal	x0,400026dc <ee_printf+0xe0c>
40002a90:	00900893          	addi	x17,x0,9
40002a94:	00001817          	auipc	x16,0x1
40002a98:	e6c80813          	addi	x16,x16,-404 # 40003900 <Func_3+0x1c>
40002a9c:	acc8d863          	bge	x17,x12,40001d6c <ee_printf+0x49c>
40002aa0:	00a00313          	addi	x6,x0,10
40002aa4:	026648b3          	div	x17,x12,x6
40002aa8:	42058593          	addi	x11,x11,1056
40002aac:	01010e13          	addi	x28,x2,16
40002ab0:	01c58e33          	add	x28,x11,x28
40002ab4:	00270593          	addi	x11,x14,2
40002ab8:	01180733          	add	x14,x16,x17
40002abc:	00074703          	lbu	x14,0(x14)
40002ac0:	02666633          	rem	x12,x12,x6
40002ac4:	beee0423          	sb	x14,-1048(x28)
40002ac8:	aa4ff06f          	jal	x0,40001d6c <ee_printf+0x49c>
40002acc:	00900313          	addi	x6,x0,9
40002ad0:	00001817          	auipc	x16,0x1
40002ad4:	e3080813          	addi	x16,x16,-464 # 40003900 <Func_3+0x1c>
40002ad8:	a0c35463          	bge	x6,x12,40001ce0 <ee_printf+0x410>
40002adc:	00a00e13          	addi	x28,x0,10
40002ae0:	03c64333          	div	x6,x12,x28
40002ae4:	42058593          	addi	x11,x11,1056
40002ae8:	01010e93          	addi	x29,x2,16
40002aec:	01d58eb3          	add	x29,x11,x29
40002af0:	00270593          	addi	x11,x14,2
40002af4:	00680733          	add	x14,x16,x6
40002af8:	00074703          	lbu	x14,0(x14)
40002afc:	03c66633          	rem	x12,x12,x28
40002b00:	beee8423          	sb	x14,-1048(x29)
40002b04:	9dcff06f          	jal	x0,40001ce0 <ee_printf+0x410>
40002b08:	00900313          	addi	x6,x0,9
40002b0c:	00001817          	auipc	x16,0x1
40002b10:	df480813          	addi	x16,x16,-524 # 40003900 <Func_3+0x1c>
40002b14:	94e35063          	bge	x6,x14,40001c54 <ee_printf+0x384>
40002b18:	00a00e13          	addi	x28,x0,10
40002b1c:	03c74333          	div	x6,x14,x28
40002b20:	42060613          	addi	x12,x12,1056
40002b24:	01010e93          	addi	x29,x2,16
40002b28:	01d60eb3          	add	x29,x12,x29
40002b2c:	00258613          	addi	x12,x11,2
40002b30:	006805b3          	add	x11,x16,x6
40002b34:	0005c583          	lbu	x11,0(x11)
40002b38:	03c76733          	rem	x14,x14,x28
40002b3c:	bebe8423          	sb	x11,-1048(x29)
40002b40:	914ff06f          	jal	x0,40001c54 <ee_printf+0x384>
40002b44:	00188893          	addi	x17,x17,1
40002b48:	ffe68313          	addi	x6,x13,-2
40002b4c:	c2cff06f          	jal	x0,40001f78 <ee_printf+0x6a8>
40002b50:	00060c93          	addi	x25,x12,0
40002b54:	0027e793          	ori	x15,x15,2
40002b58:	00490813          	addi	x16,x18,4
40002b5c:	00a00613          	addi	x12,x0,10
40002b60:	ca8ff06f          	jal	x0,40002008 <ee_printf+0x738>
40002b64:	00200613          	addi	x12,x0,2
40002b68:	00100593          	addi	x11,x0,1
40002b6c:	00000e13          	addi	x28,x0,0
40002b70:	00001817          	auipc	x16,0x1
40002b74:	d9080813          	addi	x16,x16,-624 # 40003900 <Func_3+0x1c>
40002b78:	b65ff06f          	jal	x0,400026dc <ee_printf+0xe0c>
40002b7c:	00800613          	addi	x12,x0,8
40002b80:	c84ff06f          	jal	x0,40002004 <ee_printf+0x734>
40002b84:	00a00613          	addi	x12,x0,10
40002b88:	c7cff06f          	jal	x0,40002004 <ee_printf+0x734>
40002b8c:	00060c93          	addi	x25,x12,0
40002b90:	838ff06f          	jal	x0,40001bc8 <ee_printf+0x2f8>
40002b94:	0107f613          	andi	x12,x15,16
40002b98:	d00608e3          	beq	x12,x0,400028a8 <ee_printf+0xfd8>
40002b9c:	00000613          	addi	x12,x0,0
40002ba0:	e54ff06f          	jal	x0,400021f4 <ee_printf+0x924>
40002ba4:	00060c93          	addi	x25,x12,0
40002ba8:	00490813          	addi	x16,x18,4
40002bac:	00800613          	addi	x12,x0,8
40002bb0:	c58ff06f          	jal	x0,40002008 <ee_printf+0x738>
40002bb4:	00060c93          	addi	x25,x12,0
40002bb8:	0407e793          	ori	x15,x15,64
40002bbc:	00490813          	addi	x16,x18,4
40002bc0:	01000613          	addi	x12,x0,16
40002bc4:	c44ff06f          	jal	x0,40002008 <ee_printf+0x738>
40002bc8:	00060c93          	addi	x25,x12,0
40002bcc:	00490813          	addi	x16,x18,4
40002bd0:	01000613          	addi	x12,x0,16
40002bd4:	c34ff06f          	jal	x0,40002008 <ee_printf+0x738>
40002bd8:	0407e793          	ori	x15,x15,64
40002bdc:	00060c93          	addi	x25,x12,0
40002be0:	fe9fe06f          	jal	x0,40001bc8 <ee_printf+0x2f8>
40002be4:	00250613          	addi	x12,x10,2
40002be8:	ffd68813          	addi	x16,x13,-3
40002bec:	9f8ff06f          	jal	x0,40001de4 <ee_printf+0x514>
40002bf0:	00060c93          	addi	x25,x12,0
40002bf4:	00490813          	addi	x16,x18,4
40002bf8:	00a00613          	addi	x12,x0,10
40002bfc:	c0cff06f          	jal	x0,40002008 <ee_printf+0x738>
40002c00:	00070693          	addi	x13,x14,0
40002c04:	d64ff06f          	jal	x0,40002168 <ee_printf+0x898>
40002c08:	00092783          	lw	x15,0(x18)
40002c0c:	00150513          	addi	x10,x10,1
40002c10:	00080913          	addi	x18,x16,0
40002c14:	fef50fa3          	sb	x15,-1(x10)
40002c18:	001cc783          	lbu	x15,1(x25)
40002c1c:	00078463          	beq	x15,x0,40002c24 <ee_printf+0x1354>
40002c20:	d41fe06f          	jal	x0,40001960 <ee_printf+0x90>
40002c24:	d55fe06f          	jal	x0,40001978 <ee_printf+0xa8>
40002c28:	00250893          	addi	x17,x10,2
40002c2c:	00060e13          	addi	x28,x12,0
40002c30:	c60ff06f          	jal	x0,40002090 <ee_printf+0x7c0>
40002c34:	00288893          	addi	x17,x17,2
40002c38:	ffd68313          	addi	x6,x13,-3
40002c3c:	b3cff06f          	jal	x0,40001f78 <ee_printf+0x6a8>
40002c40:	00350893          	addi	x17,x10,3
40002c44:	ffd68e13          	addi	x28,x13,-3
40002c48:	c48ff06f          	jal	x0,40002090 <ee_printf+0x7c0>
40002c4c:	00088513          	addi	x10,x17,0
40002c50:	bc4ff06f          	jal	x0,40002014 <ee_printf+0x744>
40002c54:	00450613          	addi	x12,x10,4
40002c58:	00400793          	addi	x15,x0,4
40002c5c:	db1ff06f          	jal	x0,40002a0c <ee_printf+0x113c>
40002c60:	00150613          	addi	x12,x10,1
40002c64:	ffe68813          	addi	x16,x13,-2
40002c68:	97cff06f          	jal	x0,40001de4 <ee_printf+0x514>
40002c6c:	01814583          	lbu	x11,24(x2)
40002c70:	01914703          	lbu	x14,25(x2)
40002c74:	03a00793          	addi	x15,x0,58
40002c78:	00b50023          	sb	x11,0(x10)
40002c7c:	00e500a3          	sb	x14,1(x10)
40002c80:	00f50123          	sb	x15,2(x10)
40002c84:	019501a3          	sb	x25,3(x10)
40002c88:	00750223          	sb	x7,4(x10)
40002c8c:	00f502a3          	sb	x15,5(x10)
40002c90:	00550323          	sb	x5,6(x10)
40002c94:	01f503a3          	sb	x31,7(x10)
40002c98:	00f50423          	sb	x15,8(x10)
40002c9c:	01e504a3          	sb	x30,9(x10)
40002ca0:	01d50523          	sb	x29,10(x10)
40002ca4:	00f505a3          	sb	x15,11(x10)
40002ca8:	01c50623          	sb	x28,12(x10)
40002cac:	006506a3          	sb	x6,13(x10)
40002cb0:	00f50723          	sb	x15,14(x10)
40002cb4:	011507a3          	sb	x17,15(x10)
40002cb8:	8d1ff06f          	jal	x0,40002588 <ee_printf+0xcb8>
40002cbc:	001cc783          	lbu	x15,1(x25)
40002cc0:	00078463          	beq	x15,x0,40002cc8 <ee_printf+0x13f8>
40002cc4:	c9dfe06f          	jal	x0,40001960 <ee_printf+0x90>
40002cc8:	cb1fe06f          	jal	x0,40001978 <ee_printf+0xa8>
40002ccc:	00080693          	addi	x13,x16,0
40002cd0:	994ff06f          	jal	x0,40001e64 <ee_printf+0x594>
40002cd4:	00080513          	addi	x10,x16,0
40002cd8:	9a1ff06f          	jal	x0,40002678 <ee_printf+0xda8>
40002cdc:	00050793          	addi	x15,x10,0
40002ce0:	93cff06f          	jal	x0,40001e1c <ee_printf+0x54c>
40002ce4:	00050793          	addi	x15,x10,0
40002ce8:	dacff06f          	jal	x0,40002294 <ee_printf+0x9c4>
40002cec:	00150713          	addi	x14,x10,1
40002cf0:	ffe68593          	addi	x11,x13,-2
40002cf4:	fe8ff06f          	jal	x0,400024dc <ee_printf+0xc0c>
40002cf8:	00150713          	addi	x14,x10,1
40002cfc:	00088613          	addi	x12,x17,0
40002d00:	b01ff06f          	jal	x0,40002800 <ee_printf+0xf30>
40002d04:	00250713          	addi	x14,x10,2
40002d08:	ffd68593          	addi	x11,x13,-3
40002d0c:	fd0ff06f          	jal	x0,400024dc <ee_printf+0xc0c>
40002d10:	00250713          	addi	x14,x10,2
40002d14:	ffd68613          	addi	x12,x13,-3
40002d18:	ae9ff06f          	jal	x0,40002800 <ee_printf+0xf30>
40002d1c:	00050793          	addi	x15,x10,0
40002d20:	b19ff06f          	jal	x0,40002838 <ee_printf+0xf68>
40002d24:	00050793          	addi	x15,x10,0
40002d28:	c15ff06f          	jal	x0,4000293c <ee_printf+0x106c>
40002d2c:	00050713          	addi	x14,x10,0
40002d30:	fe4ff06f          	jal	x0,40002514 <ee_printf+0xc44>
40002d34:	00058693          	addi	x13,x11,0
40002d38:	829ff06f          	jal	x0,40002560 <ee_printf+0xc90>
40002d3c:	00250813          	addi	x16,x10,2
40002d40:	ffd68713          	addi	x14,x13,-3
40002d44:	bc1ff06f          	jal	x0,40002904 <ee_printf+0x1034>
40002d48:	00088513          	addi	x10,x17,0
40002d4c:	b41ff06f          	jal	x0,4000288c <ee_printf+0xfbc>

Disassembly of section .text.init_uart:

40002d50 <init_uart>:
40002d50:	020807b7          	lui	x15,0x2080
40002d54:	00178793          	addi	x15,x15,1 # 2080001 <__heap_size+0x207f001>
40002d58:	20000737          	lui	x14,0x20000
40002d5c:	00f72023          	sw	x15,0(x14) # 20000000 <__heap_size+0x1ffff000>
40002d60:	00008067          	jalr	x0,0(x1)

Disassembly of section .text.start_time:

40002d64 <start_time>:
40002d64:	300007b7          	lui	x15,0x30000
40002d68:	0007a783          	lw	x15,0(x15) # 30000000 <__heap_size+0x2ffff000>
40002d6c:	1ef1a423          	sw	x15,488(x3) # 400042d8 <start_time_val>
40002d70:	00008067          	jalr	x0,0(x1)

Disassembly of section .text.stop_time:

40002d74 <stop_time>:
40002d74:	300007b7          	lui	x15,0x30000
40002d78:	0007a783          	lw	x15,0(x15) # 30000000 <__heap_size+0x2ffff000>
40002d7c:	1ef1a223          	sw	x15,484(x3) # 400042d4 <stop_time_val>
40002d80:	00008067          	jalr	x0,0(x1)

Disassembly of section .text.get_time:

40002d84 <get_time>:
40002d84:	1e41a503          	lw	x10,484(x3) # 400042d4 <stop_time_val>
40002d88:	1e81a783          	lw	x15,488(x3) # 400042d8 <start_time_val>
40002d8c:	40f50533          	sub	x10,x10,x15
40002d90:	00008067          	jalr	x0,0(x1)

Disassembly of section .text.time_in_secs:

40002d94 <time_in_secs>:
40002d94:	ff010113          	addi	x2,x2,-16
40002d98:	00112623          	sw	x1,12(x2)
40002d9c:	ba1fd0ef          	jal	x1,4000093c <__floatunsidf>
40002da0:	00001797          	auipc	x15,0x1
40002da4:	b5078793          	addi	x15,x15,-1200 # 400038f0 <Func_3+0xc>
40002da8:	0007a603          	lw	x12,0(x15)
40002dac:	0047a683          	lw	x13,4(x15)
40002db0:	cc8fd0ef          	jal	x1,40000278 <__divdf3>
40002db4:	00c12083          	lw	x1,12(x2)
40002db8:	01010113          	addi	x2,x2,16
40002dbc:	00008067          	jalr	x0,0(x1)

Disassembly of section .text.Proc_1:

40002dc0 <Proc_1>:
40002dc0:	ff010113          	addi	x2,x2,-16
40002dc4:	01212023          	sw	x18,0(x2)
40002dc8:	1e018913          	addi	x18,x3,480 # 400042d0 <Ptr_Glob>
40002dcc:	00092783          	lw	x15,0(x18)
40002dd0:	00812423          	sw	x8,8(x2)
40002dd4:	00052403          	lw	x8,0(x10)
40002dd8:	0007a683          	lw	x13,0(x15)
40002ddc:	0047af03          	lw	x30,4(x15)
40002de0:	0087ae83          	lw	x29,8(x15)
40002de4:	0107ae03          	lw	x28,16(x15)
40002de8:	0147a303          	lw	x6,20(x15)
40002dec:	0187a883          	lw	x17,24(x15)
40002df0:	01c7a803          	lw	x16,28(x15)
40002df4:	0247a583          	lw	x11,36(x15)
40002df8:	0287a603          	lw	x12,40(x15)
40002dfc:	02c7a703          	lw	x14,44(x15)
40002e00:	00112623          	sw	x1,12(x2)
40002e04:	00912223          	sw	x9,4(x2)
40002e08:	00050493          	addi	x9,x10,0
40002e0c:	0207a503          	lw	x10,32(x15)
40002e10:	00d42023          	sw	x13,0(x8)
40002e14:	0004a683          	lw	x13,0(x9)
40002e18:	01e42223          	sw	x30,4(x8)
40002e1c:	01d42423          	sw	x29,8(x8)
40002e20:	01c42823          	sw	x28,16(x8)
40002e24:	00642a23          	sw	x6,20(x8)
40002e28:	01142c23          	sw	x17,24(x8)
40002e2c:	01042e23          	sw	x16,28(x8)
40002e30:	02a42023          	sw	x10,32(x8)
40002e34:	02b42223          	sw	x11,36(x8)
40002e38:	02c42423          	sw	x12,40(x8)
40002e3c:	02e42623          	sw	x14,44(x8)
40002e40:	00500713          	addi	x14,x0,5
40002e44:	00e4a623          	sw	x14,12(x9)
40002e48:	00d42023          	sw	x13,0(x8)
40002e4c:	0007a783          	lw	x15,0(x15)
40002e50:	00e42623          	sw	x14,12(x8)
40002e54:	1d81a583          	lw	x11,472(x3) # 400042c8 <Int_Glob>
40002e58:	00f42023          	sw	x15,0(x8)
40002e5c:	00092603          	lw	x12,0(x18)
40002e60:	00a00513          	addi	x10,x0,10
40002e64:	00c60613          	addi	x12,x12,12
40002e68:	191000ef          	jal	x1,400037f8 <Proc_7>
40002e6c:	00442783          	lw	x15,4(x8)
40002e70:	08078063          	beq	x15,x0,40002ef0 <Proc_1+0x130>
40002e74:	0004a783          	lw	x15,0(x9)
40002e78:	00c12083          	lw	x1,12(x2)
40002e7c:	00812403          	lw	x8,8(x2)
40002e80:	0007af83          	lw	x31,0(x15)
40002e84:	0047af03          	lw	x30,4(x15)
40002e88:	0087ae83          	lw	x29,8(x15)
40002e8c:	00c7ae03          	lw	x28,12(x15)
40002e90:	0107a303          	lw	x6,16(x15)
40002e94:	0147a883          	lw	x17,20(x15)
40002e98:	0187a803          	lw	x16,24(x15)
40002e9c:	01c7a583          	lw	x11,28(x15)
40002ea0:	0207a603          	lw	x12,32(x15)
40002ea4:	0247a683          	lw	x13,36(x15)
40002ea8:	0287a703          	lw	x14,40(x15)
40002eac:	02c7a783          	lw	x15,44(x15)
40002eb0:	01f4a023          	sw	x31,0(x9)
40002eb4:	01e4a223          	sw	x30,4(x9)
40002eb8:	01d4a423          	sw	x29,8(x9)
40002ebc:	01c4a623          	sw	x28,12(x9)
40002ec0:	0064a823          	sw	x6,16(x9)
40002ec4:	0114aa23          	sw	x17,20(x9)
40002ec8:	0104ac23          	sw	x16,24(x9)
40002ecc:	00b4ae23          	sw	x11,28(x9)
40002ed0:	02c4a023          	sw	x12,32(x9)
40002ed4:	02d4a223          	sw	x13,36(x9)
40002ed8:	02e4a423          	sw	x14,40(x9)
40002edc:	02f4a623          	sw	x15,44(x9)
40002ee0:	00012903          	lw	x18,0(x2)
40002ee4:	00412483          	lw	x9,4(x2)
40002ee8:	01010113          	addi	x2,x2,16
40002eec:	00008067          	jalr	x0,0(x1)
40002ef0:	0084a503          	lw	x10,8(x9)
40002ef4:	00600793          	addi	x15,x0,6
40002ef8:	00840593          	addi	x11,x8,8
40002efc:	00f42623          	sw	x15,12(x8)
40002f00:	0a9000ef          	jal	x1,400037a8 <Proc_6>
40002f04:	00092783          	lw	x15,0(x18)
40002f08:	00c42503          	lw	x10,12(x8)
40002f0c:	00c40613          	addi	x12,x8,12
40002f10:	0007a783          	lw	x15,0(x15)
40002f14:	00c12083          	lw	x1,12(x2)
40002f18:	00412483          	lw	x9,4(x2)
40002f1c:	00f42023          	sw	x15,0(x8)
40002f20:	00812403          	lw	x8,8(x2)
40002f24:	00012903          	lw	x18,0(x2)
40002f28:	00a00593          	addi	x11,x0,10
40002f2c:	01010113          	addi	x2,x2,16
40002f30:	0c90006f          	jal	x0,400037f8 <Proc_7>

Disassembly of section .text.startup.main:

40002f34 <main>:
40002f34:	f6010113          	addi	x2,x2,-160
40002f38:	020807b7          	lui	x15,0x2080
40002f3c:	00178793          	addi	x15,x15,1 # 2080001 <__heap_size+0x207f001>
40002f40:	20000737          	lui	x14,0x20000
40002f44:	08112e23          	sw	x1,156(x2)
40002f48:	08812c23          	sw	x8,152(x2)
40002f4c:	08912a23          	sw	x9,148(x2)
40002f50:	09212823          	sw	x18,144(x2)
40002f54:	09312623          	sw	x19,140(x2)
40002f58:	09412423          	sw	x20,136(x2)
40002f5c:	09512223          	sw	x21,132(x2)
40002f60:	09612023          	sw	x22,128(x2)
40002f64:	07712e23          	sw	x23,124(x2)
40002f68:	07812c23          	sw	x24,120(x2)
40002f6c:	07912a23          	sw	x25,116(x2)
40002f70:	07a12823          	sw	x26,112(x2)
40002f74:	07b12623          	sw	x27,108(x2)
40002f78:	00f72023          	sw	x15,0(x14) # 20000000 <__heap_size+0x1ffff000>
40002f7c:	00001517          	auipc	x10,0x1
40002f80:	a1c50513          	addi	x10,x10,-1508 # 40003998 <Func_3+0xb4>
40002f84:	94dfe0ef          	jal	x1,400018d0 <ee_printf>
40002f88:	1ec18713          	addi	x14,x3,492 # 400042dc <heap_memory_used2>
40002f8c:	00072783          	lw	x15,0(x14)
40002f90:	1f018693          	addi	x13,x3,496 # 400042e0 <heap_memory2>
40002f94:	40000593          	addi	x11,x0,1024
40002f98:	03078613          	addi	x12,x15,48
40002f9c:	00c72023          	sw	x12,0(x14)
40002fa0:	00f686b3          	add	x13,x13,x15
40002fa4:	00c5d463          	bge	x11,x12,40002fac <main+0x78>
40002fa8:	00100073          	ebreak
40002fac:	00072783          	lw	x15,0(x14)
40002fb0:	1dc18d13          	addi	x26,x3,476 # 400042cc <Next_Ptr_Glob>
40002fb4:	00dd2023          	sw	x13,0(x26)
40002fb8:	03078693          	addi	x13,x15,48
40002fbc:	00d72023          	sw	x13,0(x14)
40002fc0:	1f018613          	addi	x12,x3,496 # 400042e0 <heap_memory2>
40002fc4:	40000713          	addi	x14,x0,1024
40002fc8:	00f607b3          	add	x15,x12,x15
40002fcc:	00d75463          	bge	x14,x13,40002fd4 <main+0xa0>
40002fd0:	00100073          	ebreak
40002fd4:	000d2703          	lw	x14,0(x26)
40002fd8:	01078513          	addi	x10,x15,16
40002fdc:	0007a223          	sw	x0,4(x15)
40002fe0:	00e7a023          	sw	x14,0(x15)
40002fe4:	00200713          	addi	x14,x0,2
40002fe8:	00e7a423          	sw	x14,8(x15)
40002fec:	02800713          	addi	x14,x0,40
40002ff0:	00e7a623          	sw	x14,12(x15)
40002ff4:	00001597          	auipc	x11,0x1
40002ff8:	9b858593          	addi	x11,x11,-1608 # 400039ac <Func_3+0xc8>
40002ffc:	1e018c93          	addi	x25,x3,480 # 400042d0 <Ptr_Glob>
40003000:	00fca023          	sw	x15,0(x25)
40003004:	f70fe0ef          	jal	x1,40001774 <strcpy>
40003008:	00001597          	auipc	x11,0x1
4000300c:	9c458593          	addi	x11,x11,-1596 # 400039cc <Func_3+0xe8>
40003010:	02010513          	addi	x10,x2,32
40003014:	f60fe0ef          	jal	x1,40001774 <strcpy>
40003018:	00a00793          	addi	x15,x0,10
4000301c:	00001717          	auipc	x14,0x1
40003020:	78c70713          	addi	x14,x14,1932 # 400047a8 <Arr_2_Glob>
40003024:	00001517          	auipc	x10,0x1
40003028:	bd450513          	addi	x10,x10,-1068 # 40003bf8 <Func_3+0x314>
4000302c:	64f72e23          	sw	x15,1628(x14)
40003030:	8a1fe0ef          	jal	x1,400018d0 <ee_printf>
40003034:	00001517          	auipc	x10,0x1
40003038:	9b850513          	addi	x10,x10,-1608 # 400039ec <Func_3+0x108>
4000303c:	895fe0ef          	jal	x1,400018d0 <ee_printf>
40003040:	00001517          	auipc	x10,0x1
40003044:	bb850513          	addi	x10,x10,-1096 # 40003bf8 <Func_3+0x314>
40003048:	889fe0ef          	jal	x1,400018d0 <ee_printf>
4000304c:	1cc1a783          	lw	x15,460(x3) # 400042bc <Reg>
40003050:	6a078a63          	beq	x15,x0,40003704 <main+0x7d0>
40003054:	00001517          	auipc	x10,0x1
40003058:	9c850513          	addi	x10,x10,-1592 # 40003a1c <Func_3+0x138>
4000305c:	875fe0ef          	jal	x1,400018d0 <ee_printf>
40003060:	00001517          	auipc	x10,0x1
40003064:	b9850513          	addi	x10,x10,-1128 # 40003bf8 <Func_3+0x314>
40003068:	869fe0ef          	jal	x1,400018d0 <ee_printf>
4000306c:	001e85b7          	lui	x11,0x1e8
40003070:	48058593          	addi	x11,x11,1152 # 1e8480 <__heap_size+0x1e7480>
40003074:	00001517          	auipc	x10,0x1
40003078:	a0450513          	addi	x10,x10,-1532 # 40003a78 <Func_3+0x194>
4000307c:	59525ab7          	lui	x21,0x59525
40003080:	feff04b7          	lui	x9,0xfeff0
40003084:	80808437          	lui	x8,0x80808
40003088:	849fe0ef          	jal	x1,400018d0 <ee_printf>
4000308c:	00100993          	addi	x19,x0,1
40003090:	1d118b13          	addi	x22,x3,465 # 400042c1 <Ch_1_Glob>
40003094:	1d418b93          	addi	x23,x3,468 # 400042c4 <Bool_Glob>
40003098:	1d018913          	addi	x18,x3,464 # 400042c0 <Ch_2_Glob>
4000309c:	1d818c13          	addi	x24,x3,472 # 400042c8 <Int_Glob>
400030a0:	844a8a93          	addi	x21,x21,-1980 # 59524844 <_end+0x1951d98c>
400030a4:	eff48493          	addi	x9,x9,-257 # fefefeff <_end+0xbefe9047>
400030a8:	08040413          	addi	x8,x8,128 # 80808080 <_end+0x408011c8>
400030ac:	04100793          	addi	x15,x0,65
400030b0:	00fb0023          	sb	x15,0(x22)
400030b4:	00100793          	addi	x15,x0,1
400030b8:	00fba023          	sw	x15,0(x23)
400030bc:	04200793          	addi	x15,x0,66
400030c0:	00f90023          	sb	x15,0(x18)
400030c4:	04010693          	addi	x13,x2,64
400030c8:	000a8713          	addi	x14,x21,0
400030cc:	00001617          	auipc	x12,0x1
400030d0:	88c60613          	addi	x12,x12,-1908 # 40003958 <Func_3+0x74>
400030d4:	00460613          	addi	x12,x12,4
400030d8:	00e6a023          	sw	x14,0(x13)
400030dc:	00062703          	lw	x14,0(x12)
400030e0:	00468693          	addi	x13,x13,4
400030e4:	009707b3          	add	x15,x14,x9
400030e8:	fff74593          	xori	x11,x14,-1
400030ec:	00b7f7b3          	and	x15,x15,x11
400030f0:	0087f7b3          	and	x15,x15,x8
400030f4:	fe0780e3          	beq	x15,x0,400030d4 <main+0x1a0>
400030f8:	00e68023          	sb	x14,0(x13)
400030fc:	0ff77793          	andi	x15,x14,255
40003100:	02078663          	beq	x15,x0,4000312c <main+0x1f8>
40003104:	00875793          	srli	x15,x14,0x8
40003108:	00f680a3          	sb	x15,1(x13)
4000310c:	0ff7f793          	andi	x15,x15,255
40003110:	00078e63          	beq	x15,x0,4000312c <main+0x1f8>
40003114:	01075793          	srli	x15,x14,0x10
40003118:	00f68123          	sb	x15,2(x13)
4000311c:	0ff7f793          	andi	x15,x15,255
40003120:	00078663          	beq	x15,x0,4000312c <main+0x1f8>
40003124:	01875713          	srli	x14,x14,0x18
40003128:	00e681a3          	sb	x14,3(x13)
4000312c:	00100793          	addi	x15,x0,1
40003130:	04010593          	addi	x11,x2,64
40003134:	02010513          	addi	x10,x2,32
40003138:	00f12e23          	sw	x15,28(x2)
4000313c:	750000ef          	jal	x1,4000388c <Func_2>
40003140:	00153793          	sltiu	x15,x10,1
40003144:	01810613          	addi	x12,x2,24
40003148:	00300593          	addi	x11,x0,3
4000314c:	00fba023          	sw	x15,0(x23)
40003150:	00200513          	addi	x10,x0,2
40003154:	00700793          	addi	x15,x0,7
40003158:	00f12c23          	sw	x15,24(x2)
4000315c:	69c000ef          	jal	x1,400037f8 <Proc_7>
40003160:	01812683          	lw	x13,24(x2)
40003164:	00300613          	addi	x12,x0,3
40003168:	00001597          	auipc	x11,0x1
4000316c:	64058593          	addi	x11,x11,1600 # 400047a8 <Arr_2_Glob>
40003170:	5f018513          	addi	x10,x3,1520 # 400046e0 <Arr_1_Glob>
40003174:	694000ef          	jal	x1,40003808 <Proc_8>
40003178:	000ca503          	lw	x10,0(x25)
4000317c:	c45ff0ef          	jal	x1,40002dc0 <Proc_1>
40003180:	00094703          	lbu	x14,0(x18)
40003184:	04000793          	addi	x15,x0,64
40003188:	54e7f663          	bgeu	x15,x14,400036d4 <main+0x7a0>
4000318c:	04100d93          	addi	x27,x0,65
40003190:	00300a13          	addi	x20,x0,3
40003194:	0140006f          	jal	x0,400031a8 <main+0x274>
40003198:	00094703          	lbu	x14,0(x18)
4000319c:	001d8793          	addi	x15,x27,1
400031a0:	0ff7fd93          	andi	x27,x15,255
400031a4:	0bb76263          	bltu	x14,x27,40003248 <main+0x314>
400031a8:	04300593          	addi	x11,x0,67
400031ac:	000d8513          	addi	x10,x27,0
400031b0:	6bc000ef          	jal	x1,4000386c <Func_1>
400031b4:	01c12703          	lw	x14,28(x2)
400031b8:	fee510e3          	bne	x10,x14,40003198 <main+0x264>
400031bc:	01c10593          	addi	x11,x2,28
400031c0:	00000513          	addi	x10,x0,0
400031c4:	5e4000ef          	jal	x1,400037a8 <Proc_6>
400031c8:	04010613          	addi	x12,x2,64
400031cc:	000a8693          	addi	x13,x21,0
400031d0:	00000597          	auipc	x11,0x0
400031d4:	7a858593          	addi	x11,x11,1960 # 40003978 <Func_3+0x94>
400031d8:	00458593          	addi	x11,x11,4
400031dc:	00d62023          	sw	x13,0(x12)
400031e0:	0005a683          	lw	x13,0(x11)
400031e4:	00460613          	addi	x12,x12,4
400031e8:	00968733          	add	x14,x13,x9
400031ec:	fff6c513          	xori	x10,x13,-1
400031f0:	00a77733          	and	x14,x14,x10
400031f4:	00877733          	and	x14,x14,x8
400031f8:	fe0700e3          	beq	x14,x0,400031d8 <main+0x2a4>
400031fc:	00d60023          	sb	x13,0(x12)
40003200:	0ff6f713          	andi	x14,x13,255
40003204:	02070663          	beq	x14,x0,40003230 <main+0x2fc>
40003208:	0086d713          	srli	x14,x13,0x8
4000320c:	00e600a3          	sb	x14,1(x12)
40003210:	0ff77713          	andi	x14,x14,255
40003214:	00070e63          	beq	x14,x0,40003230 <main+0x2fc>
40003218:	0106d713          	srli	x14,x13,0x10
4000321c:	00e60123          	sb	x14,2(x12)
40003220:	0ff77713          	andi	x14,x14,255
40003224:	00070663          	beq	x14,x0,40003230 <main+0x2fc>
40003228:	0186d693          	srli	x13,x13,0x18
4000322c:	00d601a3          	sb	x13,3(x12)
40003230:	00094703          	lbu	x14,0(x18)
40003234:	001d8793          	addi	x15,x27,1
40003238:	013c2023          	sw	x19,0(x24)
4000323c:	0ff7fd93          	andi	x27,x15,255
40003240:	00098a13          	addi	x20,x19,0
40003244:	f7b772e3          	bgeu	x14,x27,400031a8 <main+0x274>
40003248:	001a1793          	slli	x15,x20,0x1
4000324c:	01478a33          	add	x20,x15,x20
40003250:	01812803          	lw	x16,24(x2)
40003254:	000b4683          	lbu	x13,0(x22)
40003258:	04100793          	addi	x15,x0,65
4000325c:	030a4633          	div	x12,x20,x16
40003260:	00060713          	addi	x14,x12,0
40003264:	00f69863          	bne	x13,x15,40003274 <main+0x340>
40003268:	000c2783          	lw	x15,0(x24)
4000326c:	00960713          	addi	x14,x12,9
40003270:	40f70733          	sub	x14,x14,x15
40003274:	001e87b7          	lui	x15,0x1e8
40003278:	00198993          	addi	x19,x19,1
4000327c:	48178793          	addi	x15,x15,1153 # 1e8481 <__heap_size+0x1e7481>
40003280:	e2f996e3          	bne	x19,x15,400030ac <main+0x178>
40003284:	300007b7          	lui	x15,0x30000
40003288:	0007a783          	lw	x15,0(x15) # 30000000 <__heap_size+0x2ffff000>
4000328c:	1e81a403          	lw	x8,488(x3) # 400042d8 <start_time_val>
40003290:	00001517          	auipc	x10,0x1
40003294:	81850513          	addi	x10,x10,-2024 # 40003aa8 <Func_3+0x1c4>
40003298:	40878433          	sub	x8,x15,x8
4000329c:	00e12623          	sw	x14,12(x2)
400032a0:	00c12423          	sw	x12,8(x2)
400032a4:	01012223          	sw	x16,4(x2)
400032a8:	1ef1a223          	sw	x15,484(x3) # 400042d4 <stop_time_val>
400032ac:	1c81a223          	sw	x8,452(x3) # 400042b4 <End_Time>
400032b0:	e20fe0ef          	jal	x1,400018d0 <ee_printf>
400032b4:	00001517          	auipc	x10,0x1
400032b8:	94450513          	addi	x10,x10,-1724 # 40003bf8 <Func_3+0x314>
400032bc:	e14fe0ef          	jal	x1,400018d0 <ee_printf>
400032c0:	00000517          	auipc	x10,0x0
400032c4:	7f850513          	addi	x10,x10,2040 # 40003ab8 <Func_3+0x1d4>
400032c8:	e08fe0ef          	jal	x1,400018d0 <ee_printf>
400032cc:	00001517          	auipc	x10,0x1
400032d0:	92c50513          	addi	x10,x10,-1748 # 40003bf8 <Func_3+0x314>
400032d4:	dfcfe0ef          	jal	x1,400018d0 <ee_printf>
400032d8:	000c2583          	lw	x11,0(x24)
400032dc:	00001517          	auipc	x10,0x1
400032e0:	81450513          	addi	x10,x10,-2028 # 40003af0 <Func_3+0x20c>
400032e4:	decfe0ef          	jal	x1,400018d0 <ee_printf>
400032e8:	00500593          	addi	x11,x0,5
400032ec:	00001517          	auipc	x10,0x1
400032f0:	82050513          	addi	x10,x10,-2016 # 40003b0c <Func_3+0x228>
400032f4:	ddcfe0ef          	jal	x1,400018d0 <ee_printf>
400032f8:	000ba583          	lw	x11,0(x23)
400032fc:	00001517          	auipc	x10,0x1
40003300:	82c50513          	addi	x10,x10,-2004 # 40003b28 <Func_3+0x244>
40003304:	dccfe0ef          	jal	x1,400018d0 <ee_printf>
40003308:	00100593          	addi	x11,x0,1
4000330c:	00001517          	auipc	x10,0x1
40003310:	80050513          	addi	x10,x10,-2048 # 40003b0c <Func_3+0x228>
40003314:	dbcfe0ef          	jal	x1,400018d0 <ee_printf>
40003318:	000b4583          	lbu	x11,0(x22)
4000331c:	00001517          	auipc	x10,0x1
40003320:	82850513          	addi	x10,x10,-2008 # 40003b44 <Func_3+0x260>
40003324:	dacfe0ef          	jal	x1,400018d0 <ee_printf>
40003328:	04100593          	addi	x11,x0,65
4000332c:	00001517          	auipc	x10,0x1
40003330:	83450513          	addi	x10,x10,-1996 # 40003b60 <Func_3+0x27c>
40003334:	d9cfe0ef          	jal	x1,400018d0 <ee_printf>
40003338:	00094583          	lbu	x11,0(x18)
4000333c:	00001517          	auipc	x10,0x1
40003340:	84050513          	addi	x10,x10,-1984 # 40003b7c <Func_3+0x298>
40003344:	d8cfe0ef          	jal	x1,400018d0 <ee_printf>
40003348:	04200593          	addi	x11,x0,66
4000334c:	00001517          	auipc	x10,0x1
40003350:	81450513          	addi	x10,x10,-2028 # 40003b60 <Func_3+0x27c>
40003354:	d7cfe0ef          	jal	x1,400018d0 <ee_printf>
40003358:	1f018793          	addi	x15,x3,496 # 400042e0 <heap_memory2>
4000335c:	4207a583          	lw	x11,1056(x15)
40003360:	00001517          	auipc	x10,0x1
40003364:	83850513          	addi	x10,x10,-1992 # 40003b98 <Func_3+0x2b4>
40003368:	d68fe0ef          	jal	x1,400018d0 <ee_printf>
4000336c:	00700593          	addi	x11,x0,7
40003370:	00000517          	auipc	x10,0x0
40003374:	79c50513          	addi	x10,x10,1948 # 40003b0c <Func_3+0x228>
40003378:	d58fe0ef          	jal	x1,400018d0 <ee_printf>
4000337c:	00001797          	auipc	x15,0x1
40003380:	42c78793          	addi	x15,x15,1068 # 400047a8 <Arr_2_Glob>
40003384:	65c7a583          	lw	x11,1628(x15)
40003388:	00001517          	auipc	x10,0x1
4000338c:	82c50513          	addi	x10,x10,-2004 # 40003bb4 <Func_3+0x2d0>
40003390:	d40fe0ef          	jal	x1,400018d0 <ee_printf>
40003394:	00001517          	auipc	x10,0x1
40003398:	83c50513          	addi	x10,x10,-1988 # 40003bd0 <Func_3+0x2ec>
4000339c:	d34fe0ef          	jal	x1,400018d0 <ee_printf>
400033a0:	00001517          	auipc	x10,0x1
400033a4:	85c50513          	addi	x10,x10,-1956 # 40003bfc <Func_3+0x318>
400033a8:	d28fe0ef          	jal	x1,400018d0 <ee_printf>
400033ac:	000ca783          	lw	x15,0(x25)
400033b0:	00001517          	auipc	x10,0x1
400033b4:	85850513          	addi	x10,x10,-1960 # 40003c08 <Func_3+0x324>
400033b8:	0007a583          	lw	x11,0(x15)
400033bc:	d14fe0ef          	jal	x1,400018d0 <ee_printf>
400033c0:	00001517          	auipc	x10,0x1
400033c4:	86450513          	addi	x10,x10,-1948 # 40003c24 <Func_3+0x340>
400033c8:	d08fe0ef          	jal	x1,400018d0 <ee_printf>
400033cc:	000ca783          	lw	x15,0(x25)
400033d0:	00001517          	auipc	x10,0x1
400033d4:	88850513          	addi	x10,x10,-1912 # 40003c58 <Func_3+0x374>
400033d8:	0047a583          	lw	x11,4(x15)
400033dc:	cf4fe0ef          	jal	x1,400018d0 <ee_printf>
400033e0:	00000593          	addi	x11,x0,0
400033e4:	00000517          	auipc	x10,0x0
400033e8:	72850513          	addi	x10,x10,1832 # 40003b0c <Func_3+0x228>
400033ec:	ce4fe0ef          	jal	x1,400018d0 <ee_printf>
400033f0:	000ca783          	lw	x15,0(x25)
400033f4:	00001517          	auipc	x10,0x1
400033f8:	88050513          	addi	x10,x10,-1920 # 40003c74 <Func_3+0x390>
400033fc:	0087a583          	lw	x11,8(x15)
40003400:	cd0fe0ef          	jal	x1,400018d0 <ee_printf>
40003404:	00200593          	addi	x11,x0,2
40003408:	00000517          	auipc	x10,0x0
4000340c:	70450513          	addi	x10,x10,1796 # 40003b0c <Func_3+0x228>
40003410:	cc0fe0ef          	jal	x1,400018d0 <ee_printf>
40003414:	000ca783          	lw	x15,0(x25)
40003418:	00001517          	auipc	x10,0x1
4000341c:	87850513          	addi	x10,x10,-1928 # 40003c90 <Func_3+0x3ac>
40003420:	00c7a583          	lw	x11,12(x15)
40003424:	cacfe0ef          	jal	x1,400018d0 <ee_printf>
40003428:	01100593          	addi	x11,x0,17
4000342c:	00000517          	auipc	x10,0x0
40003430:	6e050513          	addi	x10,x10,1760 # 40003b0c <Func_3+0x228>
40003434:	c9cfe0ef          	jal	x1,400018d0 <ee_printf>
40003438:	000ca583          	lw	x11,0(x25)
4000343c:	00001517          	auipc	x10,0x1
40003440:	87050513          	addi	x10,x10,-1936 # 40003cac <Func_3+0x3c8>
40003444:	01058593          	addi	x11,x11,16
40003448:	c88fe0ef          	jal	x1,400018d0 <ee_printf>
4000344c:	00001517          	auipc	x10,0x1
40003450:	87c50513          	addi	x10,x10,-1924 # 40003cc8 <Func_3+0x3e4>
40003454:	c7cfe0ef          	jal	x1,400018d0 <ee_printf>
40003458:	00001517          	auipc	x10,0x1
4000345c:	8a850513          	addi	x10,x10,-1880 # 40003d00 <Func_3+0x41c>
40003460:	c70fe0ef          	jal	x1,400018d0 <ee_printf>
40003464:	000d2783          	lw	x15,0(x26)
40003468:	00000517          	auipc	x10,0x0
4000346c:	7a050513          	addi	x10,x10,1952 # 40003c08 <Func_3+0x324>
40003470:	0007a583          	lw	x11,0(x15)
40003474:	c5cfe0ef          	jal	x1,400018d0 <ee_printf>
40003478:	00001517          	auipc	x10,0x1
4000347c:	89c50513          	addi	x10,x10,-1892 # 40003d14 <Func_3+0x430>
40003480:	c50fe0ef          	jal	x1,400018d0 <ee_printf>
40003484:	000d2783          	lw	x15,0(x26)
40003488:	00000517          	auipc	x10,0x0
4000348c:	7d050513          	addi	x10,x10,2000 # 40003c58 <Func_3+0x374>
40003490:	0047a583          	lw	x11,4(x15)
40003494:	c3cfe0ef          	jal	x1,400018d0 <ee_printf>
40003498:	00000593          	addi	x11,x0,0
4000349c:	00000517          	auipc	x10,0x0
400034a0:	67050513          	addi	x10,x10,1648 # 40003b0c <Func_3+0x228>
400034a4:	c2cfe0ef          	jal	x1,400018d0 <ee_printf>
400034a8:	000d2783          	lw	x15,0(x26)
400034ac:	00000517          	auipc	x10,0x0
400034b0:	7c850513          	addi	x10,x10,1992 # 40003c74 <Func_3+0x390>
400034b4:	0087a583          	lw	x11,8(x15)
400034b8:	c18fe0ef          	jal	x1,400018d0 <ee_printf>
400034bc:	00100593          	addi	x11,x0,1
400034c0:	00000517          	auipc	x10,0x0
400034c4:	64c50513          	addi	x10,x10,1612 # 40003b0c <Func_3+0x228>
400034c8:	c08fe0ef          	jal	x1,400018d0 <ee_printf>
400034cc:	000d2783          	lw	x15,0(x26)
400034d0:	00000517          	auipc	x10,0x0
400034d4:	7c050513          	addi	x10,x10,1984 # 40003c90 <Func_3+0x3ac>
400034d8:	00c7a583          	lw	x11,12(x15)
400034dc:	bf4fe0ef          	jal	x1,400018d0 <ee_printf>
400034e0:	01200593          	addi	x11,x0,18
400034e4:	00000517          	auipc	x10,0x0
400034e8:	62850513          	addi	x10,x10,1576 # 40003b0c <Func_3+0x228>
400034ec:	be4fe0ef          	jal	x1,400018d0 <ee_printf>
400034f0:	000d2583          	lw	x11,0(x26)
400034f4:	00000517          	auipc	x10,0x0
400034f8:	7b850513          	addi	x10,x10,1976 # 40003cac <Func_3+0x3c8>
400034fc:	01058593          	addi	x11,x11,16
40003500:	bd0fe0ef          	jal	x1,400018d0 <ee_printf>
40003504:	00000517          	auipc	x10,0x0
40003508:	7c450513          	addi	x10,x10,1988 # 40003cc8 <Func_3+0x3e4>
4000350c:	bc4fe0ef          	jal	x1,400018d0 <ee_printf>
40003510:	00c12703          	lw	x14,12(x2)
40003514:	00001517          	auipc	x10,0x1
40003518:	84050513          	addi	x10,x10,-1984 # 40003d54 <Func_3+0x470>
4000351c:	00070593          	addi	x11,x14,0
40003520:	bb0fe0ef          	jal	x1,400018d0 <ee_printf>
40003524:	00500593          	addi	x11,x0,5
40003528:	00000517          	auipc	x10,0x0
4000352c:	5e450513          	addi	x10,x10,1508 # 40003b0c <Func_3+0x228>
40003530:	ba0fe0ef          	jal	x1,400018d0 <ee_printf>
40003534:	00412803          	lw	x16,4(x2)
40003538:	00812603          	lw	x12,8(x2)
4000353c:	00001517          	auipc	x10,0x1
40003540:	83450513          	addi	x10,x10,-1996 # 40003d70 <Func_3+0x48c>
40003544:	410a0a33          	sub	x20,x20,x16
40003548:	003a1593          	slli	x11,x20,0x3
4000354c:	414585b3          	sub	x11,x11,x20
40003550:	40c585b3          	sub	x11,x11,x12
40003554:	b7cfe0ef          	jal	x1,400018d0 <ee_printf>
40003558:	00d00593          	addi	x11,x0,13
4000355c:	00000517          	auipc	x10,0x0
40003560:	5b050513          	addi	x10,x10,1456 # 40003b0c <Func_3+0x228>
40003564:	b6cfe0ef          	jal	x1,400018d0 <ee_printf>
40003568:	01812583          	lw	x11,24(x2)
4000356c:	00001517          	auipc	x10,0x1
40003570:	82050513          	addi	x10,x10,-2016 # 40003d8c <Func_3+0x4a8>
40003574:	b5cfe0ef          	jal	x1,400018d0 <ee_printf>
40003578:	00700593          	addi	x11,x0,7
4000357c:	00000517          	auipc	x10,0x0
40003580:	59050513          	addi	x10,x10,1424 # 40003b0c <Func_3+0x228>
40003584:	b4cfe0ef          	jal	x1,400018d0 <ee_printf>
40003588:	01c12583          	lw	x11,28(x2)
4000358c:	00001517          	auipc	x10,0x1
40003590:	81c50513          	addi	x10,x10,-2020 # 40003da8 <Func_3+0x4c4>
40003594:	b3cfe0ef          	jal	x1,400018d0 <ee_printf>
40003598:	00100593          	addi	x11,x0,1
4000359c:	00000517          	auipc	x10,0x0
400035a0:	57050513          	addi	x10,x10,1392 # 40003b0c <Func_3+0x228>
400035a4:	b2cfe0ef          	jal	x1,400018d0 <ee_printf>
400035a8:	02010593          	addi	x11,x2,32
400035ac:	00001517          	auipc	x10,0x1
400035b0:	81850513          	addi	x10,x10,-2024 # 40003dc4 <Func_3+0x4e0>
400035b4:	b1cfe0ef          	jal	x1,400018d0 <ee_printf>
400035b8:	00001517          	auipc	x10,0x1
400035bc:	82850513          	addi	x10,x10,-2008 # 40003de0 <Func_3+0x4fc>
400035c0:	b10fe0ef          	jal	x1,400018d0 <ee_printf>
400035c4:	04010593          	addi	x11,x2,64
400035c8:	00001517          	auipc	x10,0x1
400035cc:	85050513          	addi	x10,x10,-1968 # 40003e18 <Func_3+0x534>
400035d0:	b00fe0ef          	jal	x1,400018d0 <ee_printf>
400035d4:	00001517          	auipc	x10,0x1
400035d8:	86050513          	addi	x10,x10,-1952 # 40003e34 <Func_3+0x550>
400035dc:	af4fe0ef          	jal	x1,400018d0 <ee_printf>
400035e0:	00000517          	auipc	x10,0x0
400035e4:	61850513          	addi	x10,x10,1560 # 40003bf8 <Func_3+0x314>
400035e8:	ae8fe0ef          	jal	x1,400018d0 <ee_printf>
400035ec:	1c81a023          	sw	x8,448(x3) # 400042b0 <User_Time>
400035f0:	00100793          	addi	x15,x0,1
400035f4:	0e87d463          	bge	x15,x8,400036dc <main+0x7a8>
400035f8:	00040513          	addi	x10,x8,0
400035fc:	a91fd0ef          	jal	x1,4000108c <__floatsisf>
40003600:	00000597          	auipc	x11,0x0
40003604:	2f85a583          	lw	x11,760(x11) # 400038f8 <Func_3+0x14>
40003608:	00050413          	addi	x8,x10,0
4000360c:	edcfd0ef          	jal	x1,40000ce8 <__mulsf3>
40003610:	00000597          	auipc	x11,0x0
40003614:	2ec5a583          	lw	x11,748(x11) # 400038fc <Func_3+0x18>
40003618:	ba4fd0ef          	jal	x1,400009bc <__divsf3>
4000361c:	00050793          	addi	x15,x10,0
40003620:	1bc18493          	addi	x9,x3,444 # 400042ac <Microseconds>
40003624:	00040593          	addi	x11,x8,0
40003628:	00000517          	auipc	x10,0x0
4000362c:	2d452503          	lw	x10,724(x10) # 400038fc <Func_3+0x18>
40003630:	00f4a023          	sw	x15,0(x9)
40003634:	b88fd0ef          	jal	x1,400009bc <__divsf3>
40003638:	00050793          	addi	x15,x10,0
4000363c:	1b818413          	addi	x8,x3,440 # 400042a8 <Dhrystones_Per_Second>
40003640:	00001517          	auipc	x10,0x1
40003644:	88450513          	addi	x10,x10,-1916 # 40003ec4 <Func_3+0x5e0>
40003648:	00f42023          	sw	x15,0(x8)
4000364c:	a84fe0ef          	jal	x1,400018d0 <ee_printf>
40003650:	0004a503          	lw	x10,0(x9)
40003654:	9c9fd0ef          	jal	x1,4000101c <__fixsfsi>
40003658:	00050593          	addi	x11,x10,0
4000365c:	00001517          	auipc	x10,0x1
40003660:	89850513          	addi	x10,x10,-1896 # 40003ef4 <Func_3+0x610>
40003664:	a6cfe0ef          	jal	x1,400018d0 <ee_printf>
40003668:	00001517          	auipc	x10,0x1
4000366c:	89450513          	addi	x10,x10,-1900 # 40003efc <Func_3+0x618>
40003670:	a60fe0ef          	jal	x1,400018d0 <ee_printf>
40003674:	00042503          	lw	x10,0(x8)
40003678:	9a5fd0ef          	jal	x1,4000101c <__fixsfsi>
4000367c:	00050593          	addi	x11,x10,0
40003680:	00001517          	auipc	x10,0x1
40003684:	87450513          	addi	x10,x10,-1932 # 40003ef4 <Func_3+0x610>
40003688:	a48fe0ef          	jal	x1,400018d0 <ee_printf>
4000368c:	00000517          	auipc	x10,0x0
40003690:	56c50513          	addi	x10,x10,1388 # 40003bf8 <Func_3+0x314>
40003694:	a3cfe0ef          	jal	x1,400018d0 <ee_printf>
40003698:	09c12083          	lw	x1,156(x2)
4000369c:	09812403          	lw	x8,152(x2)
400036a0:	09412483          	lw	x9,148(x2)
400036a4:	09012903          	lw	x18,144(x2)
400036a8:	08c12983          	lw	x19,140(x2)
400036ac:	08812a03          	lw	x20,136(x2)
400036b0:	08412a83          	lw	x21,132(x2)
400036b4:	08012b03          	lw	x22,128(x2)
400036b8:	07c12b83          	lw	x23,124(x2)
400036bc:	07812c03          	lw	x24,120(x2)
400036c0:	07412c83          	lw	x25,116(x2)
400036c4:	07012d03          	lw	x26,112(x2)
400036c8:	06c12d83          	lw	x27,108(x2)
400036cc:	0a010113          	addi	x2,x2,160
400036d0:	00008067          	jalr	x0,0(x1)
400036d4:	00900a13          	addi	x20,x0,9
400036d8:	b79ff06f          	jal	x0,40003250 <main+0x31c>
400036dc:	00000517          	auipc	x10,0x0
400036e0:	79050513          	addi	x10,x10,1936 # 40003e6c <Func_3+0x588>
400036e4:	9ecfe0ef          	jal	x1,400018d0 <ee_printf>
400036e8:	00000517          	auipc	x10,0x0
400036ec:	7bc50513          	addi	x10,x10,1980 # 40003ea4 <Func_3+0x5c0>
400036f0:	9e0fe0ef          	jal	x1,400018d0 <ee_printf>
400036f4:	00000517          	auipc	x10,0x0
400036f8:	50450513          	addi	x10,x10,1284 # 40003bf8 <Func_3+0x314>
400036fc:	9d4fe0ef          	jal	x1,400018d0 <ee_printf>
40003700:	f99ff06f          	jal	x0,40003698 <main+0x764>
40003704:	00000517          	auipc	x10,0x0
40003708:	34450513          	addi	x10,x10,836 # 40003a48 <Func_3+0x164>
4000370c:	9c4fe0ef          	jal	x1,400018d0 <ee_printf>
40003710:	00000517          	auipc	x10,0x0
40003714:	4e850513          	addi	x10,x10,1256 # 40003bf8 <Func_3+0x314>
40003718:	9b8fe0ef          	jal	x1,400018d0 <ee_printf>
4000371c:	951ff06f          	jal	x0,4000306c <main+0x138>

Disassembly of section .text.Proc_2:

40003720 <Proc_2>:
40003720:	1d11c703          	lbu	x14,465(x3) # 400042c1 <Ch_1_Glob>
40003724:	04100793          	addi	x15,x0,65
40003728:	00f70463          	beq	x14,x15,40003730 <Proc_2+0x10>
4000372c:	00008067          	jalr	x0,0(x1)
40003730:	00052783          	lw	x15,0(x10)
40003734:	1d81a703          	lw	x14,472(x3) # 400042c8 <Int_Glob>
40003738:	00978793          	addi	x15,x15,9
4000373c:	40e787b3          	sub	x15,x15,x14
40003740:	00f52023          	sw	x15,0(x10)
40003744:	00008067          	jalr	x0,0(x1)

Disassembly of section .text.Proc_3:

40003748 <Proc_3>:
40003748:	1e018793          	addi	x15,x3,480 # 400042d0 <Ptr_Glob>
4000374c:	0007a603          	lw	x12,0(x15)
40003750:	00060863          	beq	x12,x0,40003760 <Proc_3+0x18>
40003754:	00062703          	lw	x14,0(x12)
40003758:	00e52023          	sw	x14,0(x10)
4000375c:	0007a603          	lw	x12,0(x15)
40003760:	00c60613          	addi	x12,x12,12
40003764:	1d81a583          	lw	x11,472(x3) # 400042c8 <Int_Glob>
40003768:	00a00513          	addi	x10,x0,10
4000376c:	08c0006f          	jal	x0,400037f8 <Proc_7>

Disassembly of section .text.Proc_4:

40003770 <Proc_4>:
40003770:	1d418713          	addi	x14,x3,468 # 400042c4 <Bool_Glob>
40003774:	00072683          	lw	x13,0(x14)
40003778:	1d11c783          	lbu	x15,465(x3) # 400042c1 <Ch_1_Glob>
4000377c:	fbf78793          	addi	x15,x15,-65
40003780:	0017b793          	sltiu	x15,x15,1
40003784:	00d7e7b3          	or	x15,x15,x13
40003788:	00f72023          	sw	x15,0(x14)
4000378c:	04200793          	addi	x15,x0,66
40003790:	1cf18823          	sb	x15,464(x3) # 400042c0 <Ch_2_Glob>
40003794:	00008067          	jalr	x0,0(x1)

Disassembly of section .text.Proc_5:

40003798 <Proc_5>:
40003798:	04100793          	addi	x15,x0,65
4000379c:	1cf188a3          	sb	x15,465(x3) # 400042c1 <Ch_1_Glob>
400037a0:	1c01aa23          	sw	x0,468(x3) # 400042c4 <Bool_Glob>
400037a4:	00008067          	jalr	x0,0(x1)

Disassembly of section .text.Proc_6:

400037a8 <Proc_6>:
400037a8:	00200793          	addi	x15,x0,2
400037ac:	04f50063          	beq	x10,x15,400037ec <Proc_6+0x44>
400037b0:	00300713          	addi	x14,x0,3
400037b4:	00e5a023          	sw	x14,0(x11)
400037b8:	00100713          	addi	x14,x0,1
400037bc:	00e50a63          	beq	x10,x14,400037d0 <Proc_6+0x28>
400037c0:	00400713          	addi	x14,x0,4
400037c4:	02e50063          	beq	x10,x14,400037e4 <Proc_6+0x3c>
400037c8:	00050a63          	beq	x10,x0,400037dc <Proc_6+0x34>
400037cc:	00008067          	jalr	x0,0(x1)
400037d0:	1d81a703          	lw	x14,472(x3) # 400042c8 <Int_Glob>
400037d4:	06400793          	addi	x15,x0,100
400037d8:	fee7dae3          	bge	x15,x14,400037cc <Proc_6+0x24>
400037dc:	0005a023          	sw	x0,0(x11)
400037e0:	00008067          	jalr	x0,0(x1)
400037e4:	00f5a023          	sw	x15,0(x11)
400037e8:	00008067          	jalr	x0,0(x1)
400037ec:	00100793          	addi	x15,x0,1
400037f0:	00f5a023          	sw	x15,0(x11)
400037f4:	00008067          	jalr	x0,0(x1)

Disassembly of section .text.Proc_7:

400037f8 <Proc_7>:
400037f8:	00250513          	addi	x10,x10,2
400037fc:	00b505b3          	add	x11,x10,x11
40003800:	00b62023          	sw	x11,0(x12)
40003804:	00008067          	jalr	x0,0(x1)

Disassembly of section .text.Proc_8:

40003808 <Proc_8>:
40003808:	00560713          	addi	x14,x12,5
4000380c:	0c800813          	addi	x16,x0,200
40003810:	03070833          	mul	x16,x14,x16
40003814:	00261613          	slli	x12,x12,0x2
40003818:	00271793          	slli	x15,x14,0x2
4000381c:	00f50533          	add	x10,x10,x15
40003820:	00d52023          	sw	x13,0(x10)
40003824:	06e52c23          	sw	x14,120(x10)
40003828:	00d52223          	sw	x13,4(x10)
4000382c:	00c807b3          	add	x15,x16,x12
40003830:	00f587b3          	add	x15,x11,x15
40003834:	0107a683          	lw	x13,16(x15)
40003838:	00e7aa23          	sw	x14,20(x15)
4000383c:	00e7ac23          	sw	x14,24(x15)
40003840:	00168713          	addi	x14,x13,1
40003844:	00e7a823          	sw	x14,16(x15)
40003848:	00052703          	lw	x14,0(x10)
4000384c:	010585b3          	add	x11,x11,x16
40003850:	00c585b3          	add	x11,x11,x12
40003854:	000017b7          	lui	x15,0x1
40003858:	00b787b3          	add	x15,x15,x11
4000385c:	fae7aa23          	sw	x14,-76(x15) # fb4 <__stack_size+0x7b4>
40003860:	00500793          	addi	x15,x0,5
40003864:	1cf1ac23          	sw	x15,472(x3) # 400042c8 <Int_Glob>
40003868:	00008067          	jalr	x0,0(x1)

Disassembly of section .text.Func_1:

4000386c <Func_1>:
4000386c:	0ff57513          	andi	x10,x10,255
40003870:	0ff5f593          	andi	x11,x11,255
40003874:	00b50663          	beq	x10,x11,40003880 <Func_1+0x14>
40003878:	00000513          	addi	x10,x0,0
4000387c:	00008067          	jalr	x0,0(x1)
40003880:	1ca188a3          	sb	x10,465(x3) # 400042c1 <Ch_1_Glob>
40003884:	00100513          	addi	x10,x0,1
40003888:	00008067          	jalr	x0,0(x1)

Disassembly of section .text.Func_2:

4000388c <Func_2>:
4000388c:	ff010113          	addi	x2,x2,-16
40003890:	00112623          	sw	x1,12(x2)
40003894:	00254783          	lbu	x15,2(x10)
40003898:	0035c703          	lbu	x14,3(x11)
4000389c:	00000613          	addi	x12,x0,0
400038a0:	00000693          	addi	x13,x0,0
400038a4:	02e78a63          	beq	x15,x14,400038d8 <Func_2+0x4c>
400038a8:	00068463          	beq	x13,x0,400038b0 <Func_2+0x24>
400038ac:	1cc188a3          	sb	x12,465(x3) # 400042c1 <Ch_1_Glob>
400038b0:	84dfc0ef          	jal	x1,400000fc <strcmp>
400038b4:	00000793          	addi	x15,x0,0
400038b8:	00a05863          	bge	x0,x10,400038c8 <Func_2+0x3c>
400038bc:	00a00793          	addi	x15,x0,10
400038c0:	1cf1ac23          	sw	x15,472(x3) # 400042c8 <Int_Glob>
400038c4:	00100793          	addi	x15,x0,1
400038c8:	00c12083          	lw	x1,12(x2)
400038cc:	00078513          	addi	x10,x15,0
400038d0:	01010113          	addi	x2,x2,16
400038d4:	00008067          	jalr	x0,0(x1)
400038d8:	00100693          	addi	x13,x0,1
400038dc:	00078613          	addi	x12,x15,0
400038e0:	fc5ff06f          	jal	x0,400038a4 <Func_2+0x18>

Disassembly of section .text.Func_3:

400038e4 <Func_3>:
400038e4:	ffe50513          	addi	x10,x10,-2
400038e8:	00153513          	sltiu	x10,x10,1
400038ec:	00008067          	jalr	x0,0(x1)
