
main.riscv:     file format elf32-littleriscv


Disassembly of section .text:

40000000 <main>:
40000000:	ff010113          	addi	x2,x2,-16
40000004:	00112623          	sw	x1,12(x2)
40000008:	00812423          	sw	x8,8(x2)
4000000c:	3c5000ef          	jal	x1,40000bd0 <init_uart>
40000010:	00001517          	auipc	x10,0x1
40000014:	c0450513          	addi	x10,x10,-1020 # 40000c14 <getchar+0x1c>
40000018:	2dc000ef          	jal	x1,400002f4 <ee_printf>
4000001c:	00001517          	auipc	x10,0x1
40000020:	c0050513          	addi	x10,x10,-1024 # 40000c1c <getchar+0x24>
40000024:	2d0000ef          	jal	x1,400002f4 <ee_printf>
40000028:	3d1000ef          	jal	x1,40000bf8 <getchar>
4000002c:	3cd000ef          	jal	x1,40000bf8 <getchar>
40000030:	3c9000ef          	jal	x1,40000bf8 <getchar>
40000034:	3c5000ef          	jal	x1,40000bf8 <getchar>
40000038:	00001517          	auipc	x10,0x1
4000003c:	bec50513          	addi	x10,x10,-1044 # 40000c24 <getchar+0x2c>
40000040:	2b4000ef          	jal	x1,400002f4 <ee_printf>
40000044:	00001417          	auipc	x8,0x1
40000048:	be440413          	addi	x8,x8,-1052 # 40000c28 <getchar+0x30>
4000004c:	3ad000ef          	jal	x1,40000bf8 <getchar>
40000050:	00050593          	addi	x11,x10,0
40000054:	00040513          	addi	x10,x8,0
40000058:	29c000ef          	jal	x1,400002f4 <ee_printf>
4000005c:	ff1ff06f          	jal	x0,4000004c <main+0x4c>

40000060 <finished>:
40000060:	0000006f          	jal	x0,40000060 <finished>

40000064 <number>:
40000064:	fa010113          	addi	x2,x2,-96
40000068:	04812e23          	sw	x8,92(x2)
4000006c:	04912c23          	sw	x9,88(x2)
40000070:	0407f813          	andi	x16,x15,64
40000074:	00001e97          	auipc	x29,0x1
40000078:	be0e8e93          	addi	x29,x29,-1056 # 40000c54 <getchar+0x5c>
4000007c:	00081663          	bne	x16,x0,40000088 <number+0x24>
40000080:	00001e97          	auipc	x29,0x1
40000084:	bace8e93          	addi	x29,x29,-1108 # 40000c2c <getchar+0x34>
40000088:	0107f413          	andi	x8,x15,16
4000008c:	14041663          	bne	x8,x0,400001d8 <number+0x174>
40000090:	0017f813          	andi	x16,x15,1
40000094:	0117f493          	andi	x9,x15,17
40000098:	03000393          	addi	x7,x0,48
4000009c:	14080263          	beq	x16,x0,400001e0 <number+0x17c>
400000a0:	0027f813          	andi	x16,x15,2
400000a4:	0207ff13          	andi	x30,x15,32
400000a8:	12080463          	beq	x16,x0,400001d0 <number+0x16c>
400000ac:	1405c463          	blt	x11,x0,400001f4 <number+0x190>
400000b0:	0047f813          	andi	x16,x15,4
400000b4:	18081463          	bne	x16,x0,4000023c <number+0x1d8>
400000b8:	0087f793          	andi	x15,x15,8
400000bc:	00000f93          	addi	x31,x0,0
400000c0:	00078663          	beq	x15,x0,400000cc <number+0x68>
400000c4:	fff68693          	addi	x13,x13,-1
400000c8:	02000f93          	addi	x31,x0,32
400000cc:	000f0c63          	beq	x30,x0,400000e4 <number+0x80>
400000d0:	01000793          	addi	x15,x0,16
400000d4:	18f60e63          	beq	x12,x15,40000270 <number+0x20c>
400000d8:	ff860793          	addi	x15,x12,-8
400000dc:	0017b793          	sltiu	x15,x15,1
400000e0:	40f686b3          	sub	x13,x13,x15
400000e4:	12059063          	bne	x11,x0,40000204 <number+0x1a0>
400000e8:	03000793          	addi	x15,x0,48
400000ec:	00f10623          	sb	x15,12(x2)
400000f0:	00100813          	addi	x16,x0,1
400000f4:	00c10293          	addi	x5,x2,12
400000f8:	00080893          	addi	x17,x16,0
400000fc:	00e85463          	bge	x16,x14,40000104 <number+0xa0>
40000100:	00070893          	addi	x17,x14,0
40000104:	411686b3          	sub	x13,x13,x17
40000108:	02049063          	bne	x9,x0,40000128 <number+0xc4>
4000010c:	00d50733          	add	x14,x10,x13
40000110:	02000793          	addi	x15,x0,32
40000114:	16d05a63          	bge	x0,x13,40000288 <number+0x224>
40000118:	00150513          	addi	x10,x10,1
4000011c:	fef50fa3          	sb	x15,-1(x10)
40000120:	fee51ce3          	bne	x10,x14,40000118 <number+0xb4>
40000124:	fff00693          	addi	x13,x0,-1
40000128:	000f8663          	beq	x31,x0,40000134 <number+0xd0>
4000012c:	01f50023          	sb	x31,0(x10)
40000130:	00150513          	addi	x10,x10,1
40000134:	000f0a63          	beq	x30,x0,40000148 <number+0xe4>
40000138:	00800793          	addi	x15,x0,8
4000013c:	12f60263          	beq	x12,x15,40000260 <number+0x1fc>
40000140:	01000793          	addi	x15,x0,16
40000144:	10f60263          	beq	x12,x15,40000248 <number+0x1e4>
40000148:	00041e63          	bne	x8,x0,40000164 <number+0x100>
4000014c:	00d507b3          	add	x15,x10,x13
40000150:	14d05063          	bge	x0,x13,40000290 <number+0x22c>
40000154:	00150513          	addi	x10,x10,1
40000158:	fe750fa3          	sb	x7,-1(x10)
4000015c:	fea79ce3          	bne	x15,x10,40000154 <number+0xf0>
40000160:	fff00693          	addi	x13,x0,-1
40000164:	410887b3          	sub	x15,x17,x16
40000168:	00f507b3          	add	x15,x10,x15
4000016c:	03000713          	addi	x14,x0,48
40000170:	11185863          	bge	x16,x17,40000280 <number+0x21c>
40000174:	00150513          	addi	x10,x10,1
40000178:	fee50fa3          	sb	x14,-1(x10)
4000017c:	fea79ce3          	bne	x15,x10,40000174 <number+0x110>
40000180:	00b28733          	add	x14,x5,x11
40000184:	00078613          	addi	x12,x15,0
40000188:	00074803          	lbu	x16,0(x14)
4000018c:	00070513          	addi	x10,x14,0
40000190:	00160613          	addi	x12,x12,1
40000194:	ff060fa3          	sb	x16,-1(x12)
40000198:	fff70713          	addi	x14,x14,-1
4000019c:	fea296e3          	bne	x5,x10,40000188 <number+0x124>
400001a0:	00158593          	addi	x11,x11,1
400001a4:	00b785b3          	add	x11,x15,x11
400001a8:	0cd05863          	bge	x0,x13,40000278 <number+0x214>
400001ac:	00d58533          	add	x10,x11,x13
400001b0:	02000793          	addi	x15,x0,32
400001b4:	00158593          	addi	x11,x11,1
400001b8:	fef58fa3          	sb	x15,-1(x11)
400001bc:	feb51ce3          	bne	x10,x11,400001b4 <number+0x150>
400001c0:	05c12403          	lw	x8,92(x2)
400001c4:	05812483          	lw	x9,88(x2)
400001c8:	06010113          	addi	x2,x2,96
400001cc:	00008067          	jalr	x0,0(x1)
400001d0:	00000f93          	addi	x31,x0,0
400001d4:	ef9ff06f          	jal	x0,400000cc <number+0x68>
400001d8:	ffe7f793          	andi	x15,x15,-2
400001dc:	00040493          	addi	x9,x8,0
400001e0:	0027f813          	andi	x16,x15,2
400001e4:	02000393          	addi	x7,x0,32
400001e8:	0207ff13          	andi	x30,x15,32
400001ec:	fe0802e3          	beq	x16,x0,400001d0 <number+0x16c>
400001f0:	ebdff06f          	jal	x0,400000ac <number+0x48>
400001f4:	40b005b3          	sub	x11,x0,x11
400001f8:	fff68693          	addi	x13,x13,-1
400001fc:	02d00f93          	addi	x31,x0,45
40000200:	ec0f18e3          	bne	x30,x0,400000d0 <number+0x6c>
40000204:	00058793          	addi	x15,x11,0
40000208:	00000813          	addi	x16,x0,0
4000020c:	00c10293          	addi	x5,x2,12
40000210:	02c7f8b3          	remu	x17,x15,x12
40000214:	00080593          	addi	x11,x16,0
40000218:	00180813          	addi	x16,x16,1
4000021c:	01028e33          	add	x28,x5,x16
40000220:	00078313          	addi	x6,x15,0
40000224:	011e88b3          	add	x17,x29,x17
40000228:	0008c883          	lbu	x17,0(x17)
4000022c:	02c7d7b3          	divu	x15,x15,x12
40000230:	ff1e0fa3          	sb	x17,-1(x28)
40000234:	fcc37ee3          	bgeu	x6,x12,40000210 <number+0x1ac>
40000238:	ec1ff06f          	jal	x0,400000f8 <number+0x94>
4000023c:	fff68693          	addi	x13,x13,-1
40000240:	02b00f93          	addi	x31,x0,43
40000244:	e89ff06f          	jal	x0,400000cc <number+0x68>
40000248:	03000793          	addi	x15,x0,48
4000024c:	00f50023          	sb	x15,0(x10)
40000250:	07800793          	addi	x15,x0,120
40000254:	00f500a3          	sb	x15,1(x10)
40000258:	00250513          	addi	x10,x10,2
4000025c:	eedff06f          	jal	x0,40000148 <number+0xe4>
40000260:	03000793          	addi	x15,x0,48
40000264:	00f50023          	sb	x15,0(x10)
40000268:	00150513          	addi	x10,x10,1
4000026c:	eddff06f          	jal	x0,40000148 <number+0xe4>
40000270:	ffe68693          	addi	x13,x13,-2
40000274:	e71ff06f          	jal	x0,400000e4 <number+0x80>
40000278:	00058513          	addi	x10,x11,0
4000027c:	f45ff06f          	jal	x0,400001c0 <number+0x15c>
40000280:	00050793          	addi	x15,x10,0
40000284:	efdff06f          	jal	x0,40000180 <number+0x11c>
40000288:	fff68693          	addi	x13,x13,-1
4000028c:	e9dff06f          	jal	x0,40000128 <number+0xc4>
40000290:	fff68693          	addi	x13,x13,-1
40000294:	ed1ff06f          	jal	x0,40000164 <number+0x100>

40000298 <zputchar>:
40000298:	20000737          	lui	x14,0x20000
4000029c:	00472783          	lw	x15,4(x14) # 20000004 <main-0x1ffffffc>
400002a0:	0017f793          	andi	x15,x15,1
400002a4:	fe079ce3          	bne	x15,x0,4000029c <zputchar+0x4>
400002a8:	00a70623          	sb	x10,12(x14)
400002ac:	00008067          	jalr	x0,0(x1)

400002b0 <print>:
400002b0:	00054683          	lbu	x13,0(x10)
400002b4:	02068263          	beq	x13,x0,400002d8 <print+0x28>
400002b8:	20000737          	lui	x14,0x20000
400002bc:	00150513          	addi	x10,x10,1
400002c0:	00472783          	lw	x15,4(x14) # 20000004 <main-0x1ffffffc>
400002c4:	0017f793          	andi	x15,x15,1
400002c8:	fe079ce3          	bne	x15,x0,400002c0 <print+0x10>
400002cc:	00d70623          	sb	x13,12(x14)
400002d0:	00054683          	lbu	x13,0(x10)
400002d4:	fe0694e3          	bne	x13,x0,400002bc <print+0xc>
400002d8:	00008067          	jalr	x0,0(x1)

400002dc <uart_send_char>:
400002dc:	20000737          	lui	x14,0x20000
400002e0:	00472783          	lw	x15,4(x14) # 20000004 <main-0x1ffffffc>
400002e4:	0017f793          	andi	x15,x15,1
400002e8:	fe079ce3          	bne	x15,x0,400002e0 <uart_send_char+0x4>
400002ec:	00a70623          	sb	x10,12(x14)
400002f0:	00008067          	jalr	x0,0(x1)

400002f4 <ee_printf>:
400002f4:	b7010113          	addi	x2,x2,-1168
400002f8:	48e12023          	sw	x14,1152(x2)
400002fc:	46112623          	sw	x1,1132(x2)
40000300:	46812423          	sw	x8,1128(x2)
40000304:	46912223          	sw	x9,1124(x2)
40000308:	47212023          	sw	x18,1120(x2)
4000030c:	45312e23          	sw	x19,1116(x2)
40000310:	45412c23          	sw	x20,1112(x2)
40000314:	45512a23          	sw	x21,1108(x2)
40000318:	45612823          	sw	x22,1104(x2)
4000031c:	45712623          	sw	x23,1100(x2)
40000320:	45812423          	sw	x24,1096(x2)
40000324:	45912223          	sw	x25,1092(x2)
40000328:	45a12023          	sw	x26,1088(x2)
4000032c:	43b12e23          	sw	x27,1084(x2)
40000330:	46b12a23          	sw	x11,1140(x2)
40000334:	46c12c23          	sw	x12,1144(x2)
40000338:	46d12e23          	sw	x13,1148(x2)
4000033c:	48f12223          	sw	x15,1156(x2)
40000340:	49012423          	sw	x16,1160(x2)
40000344:	49112623          	sw	x17,1164(x2)
40000348:	00054783          	lbu	x15,0(x10)
4000034c:	47410713          	addi	x14,x2,1140
40000350:	00e12a23          	sw	x14,20(x2)
40000354:	72078a63          	beq	x15,x0,40000a88 <ee_printf+0x794>
40000358:	03010993          	addi	x19,x2,48
4000035c:	00050313          	addi	x6,x10,0
40000360:	00070a13          	addi	x20,x14,0
40000364:	00098513          	addi	x10,x19,0
40000368:	02500913          	addi	x18,x0,37
4000036c:	01000493          	addi	x9,x0,16
40000370:	00001417          	auipc	x8,0x1
40000374:	91440413          	addi	x8,x8,-1772 # 40000c84 <getchar+0x8c>
40000378:	00900d93          	addi	x27,x0,9
4000037c:	02e00c93          	addi	x25,x0,46
40000380:	04c00d13          	addi	x26,x0,76
40000384:	03700c13          	addi	x24,x0,55
40000388:	05278863          	beq	x15,x18,400003d8 <ee_printf+0xe4>
4000038c:	00f50023          	sb	x15,0(x10)
40000390:	00134783          	lbu	x15,1(x6)
40000394:	00150513          	addi	x10,x10,1
40000398:	00130313          	addi	x6,x6,1
4000039c:	fe0796e3          	bne	x15,x0,40000388 <ee_printf+0x94>
400003a0:	00050023          	sb	x0,0(x10)
400003a4:	03014603          	lbu	x12,48(x2)
400003a8:	10060863          	beq	x12,x0,400004b8 <ee_printf+0x1c4>
400003ac:	00098693          	addi	x13,x19,0
400003b0:	20000737          	lui	x14,0x20000
400003b4:	00472783          	lw	x15,4(x14) # 20000004 <main-0x1ffffffc>
400003b8:	0017f793          	andi	x15,x15,1
400003bc:	fe079ce3          	bne	x15,x0,400003b4 <ee_printf+0xc0>
400003c0:	00c70623          	sb	x12,12(x14)
400003c4:	0016c603          	lbu	x12,1(x13)
400003c8:	00168793          	addi	x15,x13,1
400003cc:	12060463          	beq	x12,x0,400004f4 <ee_printf+0x200>
400003d0:	00078693          	addi	x13,x15,0
400003d4:	fe1ff06f          	jal	x0,400003b4 <ee_printf+0xc0>
400003d8:	00000793          	addi	x15,x0,0
400003dc:	00134603          	lbu	x12,1(x6)
400003e0:	00130593          	addi	x11,x6,1
400003e4:	fe060713          	addi	x14,x12,-32
400003e8:	0ff77713          	andi	x14,x14,255
400003ec:	00e4ec63          	bltu	x9,x14,40000404 <ee_printf+0x110>
400003f0:	00271713          	slli	x14,x14,0x2
400003f4:	00870733          	add	x14,x14,x8
400003f8:	00072703          	lw	x14,0(x14)
400003fc:	00870733          	add	x14,x14,x8
40000400:	00070067          	jalr	x0,0(x14)
40000404:	fd060713          	addi	x14,x12,-48
40000408:	0ff77713          	andi	x14,x14,255
4000040c:	14edfc63          	bgeu	x27,x14,40000564 <ee_printf+0x270>
40000410:	02a00713          	addi	x14,x0,42
40000414:	fff00693          	addi	x13,x0,-1
40000418:	18e60063          	beq	x12,x14,40000598 <ee_printf+0x2a4>
4000041c:	fff00713          	addi	x14,x0,-1
40000420:	11960c63          	beq	x12,x25,40000538 <ee_printf+0x244>
40000424:	0df67813          	andi	x16,x12,223
40000428:	09a80c63          	beq	x16,x26,400004c0 <ee_printf+0x1cc>
4000042c:	fbf60813          	addi	x16,x12,-65
40000430:	0ff87813          	andi	x16,x16,255
40000434:	050c6e63          	bltu	x24,x16,40000490 <ee_printf+0x19c>
40000438:	00001897          	auipc	x17,0x1
4000043c:	89088893          	addi	x17,x17,-1904 # 40000cc8 <getchar+0xd0>
40000440:	00281813          	slli	x16,x16,0x2
40000444:	01180833          	add	x16,x16,x17
40000448:	00082803          	lw	x16,0(x16)
4000044c:	01180833          	add	x16,x16,x17
40000450:	00080067          	jalr	x0,0(x16)
40000454:	0017e793          	ori	x15,x15,1
40000458:	00058313          	addi	x6,x11,0
4000045c:	f81ff06f          	jal	x0,400003dc <ee_printf+0xe8>
40000460:	0107e793          	ori	x15,x15,16
40000464:	00058313          	addi	x6,x11,0
40000468:	f75ff06f          	jal	x0,400003dc <ee_printf+0xe8>
4000046c:	0047e793          	ori	x15,x15,4
40000470:	00058313          	addi	x6,x11,0
40000474:	f69ff06f          	jal	x0,400003dc <ee_printf+0xe8>
40000478:	0207e793          	ori	x15,x15,32
4000047c:	00058313          	addi	x6,x11,0
40000480:	f5dff06f          	jal	x0,400003dc <ee_printf+0xe8>
40000484:	0087e793          	ori	x15,x15,8
40000488:	00058313          	addi	x6,x11,0
4000048c:	f51ff06f          	jal	x0,400003dc <ee_printf+0xe8>
40000490:	00058a93          	addi	x21,x11,0
40000494:	02500793          	addi	x15,x0,37
40000498:	58f60463          	beq	x12,x15,40000a20 <ee_printf+0x72c>
4000049c:	00f50023          	sb	x15,0(x10)
400004a0:	000ac783          	lbu	x15,0(x21)
400004a4:	00150513          	addi	x10,x10,1
400004a8:	56079e63          	bne	x15,x0,40000a24 <ee_printf+0x730>
400004ac:	00050023          	sb	x0,0(x10)
400004b0:	03014603          	lbu	x12,48(x2)
400004b4:	ee061ce3          	bne	x12,x0,400003ac <ee_printf+0xb8>
400004b8:	00000513          	addi	x10,x0,0
400004bc:	0400006f          	jal	x0,400004fc <ee_printf+0x208>
400004c0:	00060893          	addi	x17,x12,0
400004c4:	0015c603          	lbu	x12,1(x11)
400004c8:	00158a93          	addi	x21,x11,1
400004cc:	fbf60813          	addi	x16,x12,-65
400004d0:	0ff87813          	andi	x16,x16,255
400004d4:	fd0c60e3          	bltu	x24,x16,40000494 <ee_printf+0x1a0>
400004d8:	00001317          	auipc	x6,0x1
400004dc:	8d030313          	addi	x6,x6,-1840 # 40000da8 <getchar+0x1b0>
400004e0:	00281813          	slli	x16,x16,0x2
400004e4:	00680833          	add	x16,x16,x6
400004e8:	00082803          	lw	x16,0(x16)
400004ec:	00680833          	add	x16,x16,x6
400004f0:	00080067          	jalr	x0,0(x16)
400004f4:	413686b3          	sub	x13,x13,x19
400004f8:	00168513          	addi	x10,x13,1
400004fc:	46c12083          	lw	x1,1132(x2)
40000500:	46812403          	lw	x8,1128(x2)
40000504:	46412483          	lw	x9,1124(x2)
40000508:	46012903          	lw	x18,1120(x2)
4000050c:	45c12983          	lw	x19,1116(x2)
40000510:	45812a03          	lw	x20,1112(x2)
40000514:	45412a83          	lw	x21,1108(x2)
40000518:	45012b03          	lw	x22,1104(x2)
4000051c:	44c12b83          	lw	x23,1100(x2)
40000520:	44812c03          	lw	x24,1096(x2)
40000524:	44412c83          	lw	x25,1092(x2)
40000528:	44012d03          	lw	x26,1088(x2)
4000052c:	43c12d83          	lw	x27,1084(x2)
40000530:	49010113          	addi	x2,x2,1168
40000534:	00008067          	jalr	x0,0(x1)
40000538:	0015c603          	lbu	x12,1(x11)
4000053c:	00900893          	addi	x17,x0,9
40000540:	00158813          	addi	x16,x11,1
40000544:	fd060713          	addi	x14,x12,-48
40000548:	0ff77713          	andi	x14,x14,255
4000054c:	36e8fa63          	bgeu	x17,x14,400008c0 <ee_printf+0x5cc>
40000550:	02a00713          	addi	x14,x0,42
40000554:	3ae60463          	beq	x12,x14,400008fc <ee_printf+0x608>
40000558:	00080593          	addi	x11,x16,0
4000055c:	00000713          	addi	x14,x0,0
40000560:	ec5ff06f          	jal	x0,40000424 <ee_printf+0x130>
40000564:	00000693          	addi	x13,x0,0
40000568:	00900813          	addi	x16,x0,9
4000056c:	00269713          	slli	x14,x13,0x2
40000570:	00d70733          	add	x14,x14,x13
40000574:	00158593          	addi	x11,x11,1
40000578:	00171713          	slli	x14,x14,0x1
4000057c:	00c70733          	add	x14,x14,x12
40000580:	0005c603          	lbu	x12,0(x11)
40000584:	fd070693          	addi	x13,x14,-48
40000588:	fd060713          	addi	x14,x12,-48
4000058c:	0ff77713          	andi	x14,x14,255
40000590:	fce87ee3          	bgeu	x16,x14,4000056c <ee_printf+0x278>
40000594:	e89ff06f          	jal	x0,4000041c <ee_printf+0x128>
40000598:	000a2683          	lw	x13,0(x20)
4000059c:	00234603          	lbu	x12,2(x6)
400005a0:	00230593          	addi	x11,x6,2
400005a4:	004a0a13          	addi	x20,x20,4
400005a8:	e606dae3          	bge	x13,x0,4000041c <ee_printf+0x128>
400005ac:	40d006b3          	sub	x13,x0,x13
400005b0:	0107e793          	ori	x15,x15,16
400005b4:	e69ff06f          	jal	x0,4000041c <ee_printf+0x128>
400005b8:	0407e793          	ori	x15,x15,64
400005bc:	06c00713          	addi	x14,x0,108
400005c0:	36e88063          	beq	x17,x14,40000920 <ee_printf+0x62c>
400005c4:	000a2e03          	lw	x28,0(x20)
400005c8:	00000593          	addi	x11,x0,0
400005cc:	00000713          	addi	x14,x0,0
400005d0:	00be0633          	add	x12,x28,x11
400005d4:	00064603          	lbu	x12,0(x12)
400005d8:	00f12423          	sw	x15,8(x2)
400005dc:	00d12623          	sw	x13,12(x2)
400005e0:	004a0f93          	addi	x31,x20,4
400005e4:	06300393          	addi	x7,x0,99
400005e8:	00000e97          	auipc	x29,0x0
400005ec:	644e8e93          	addi	x29,x29,1604 # 40000c2c <getchar+0x34>
400005f0:	06400b13          	addi	x22,x0,100
400005f4:	00a00b93          	addi	x23,x0,10
400005f8:	03000293          	addi	x5,x0,48
400005fc:	00400313          	addi	x6,x0,4
40000600:	02e00f13          	addi	x30,x0,46
40000604:	00170813          	addi	x16,x14,1
40000608:	04061063          	bne	x12,x0,40000648 <ee_printf+0x354>
4000060c:	42070793          	addi	x15,x14,1056
40000610:	01010713          	addi	x14,x2,16
40000614:	00e78733          	add	x14,x15,x14
40000618:	be570423          	sb	x5,-1048(x14)
4000061c:	00158593          	addi	x11,x11,1
40000620:	0a658263          	beq	x11,x6,400006c4 <ee_printf+0x3d0>
40000624:	42080793          	addi	x15,x16,1056
40000628:	01010713          	addi	x14,x2,16
4000062c:	00e78633          	add	x12,x15,x14
40000630:	bfe60423          	sb	x30,-1048(x12)
40000634:	00be0633          	add	x12,x28,x11
40000638:	00064603          	lbu	x12,0(x12)
4000063c:	00180713          	addi	x14,x16,1
40000640:	00170813          	addi	x16,x14,1
40000644:	fc0604e3          	beq	x12,x0,4000060c <ee_printf+0x318>
40000648:	22c3da63          	bge	x7,x12,4000087c <ee_printf+0x588>
4000064c:	036667b3          	rem	x15,x12,x22
40000650:	42070693          	addi	x13,x14,1056
40000654:	01010893          	addi	x17,x2,16
40000658:	011688b3          	add	x17,x13,x17
4000065c:	00088693          	addi	x13,x17,0
40000660:	42080813          	addi	x16,x16,1056
40000664:	01010893          	addi	x17,x2,16
40000668:	01180833          	add	x16,x16,x17
4000066c:	01012223          	sw	x16,4(x2)
40000670:	00270713          	addi	x14,x14,2
40000674:	000e8893          	addi	x17,x29,0
40000678:	00170813          	addi	x16,x14,1
4000067c:	03664633          	div	x12,x12,x22
40000680:	0377ca33          	div	x20,x15,x23
40000684:	00ce8633          	add	x12,x29,x12
40000688:	00064603          	lbu	x12,0(x12)
4000068c:	bec68423          	sb	x12,-1048(x13)
40000690:	014e8a33          	add	x20,x29,x20
40000694:	0377e633          	rem	x12,x15,x23
40000698:	000a4a03          	lbu	x20,0(x20)
4000069c:	00412783          	lw	x15,4(x2)
400006a0:	bf478423          	sb	x20,-1048(x15)
400006a4:	00c888b3          	add	x17,x17,x12
400006a8:	0008c603          	lbu	x12,0(x17)
400006ac:	42070793          	addi	x15,x14,1056
400006b0:	01010713          	addi	x14,x2,16
400006b4:	00e78733          	add	x14,x15,x14
400006b8:	bec70423          	sb	x12,-1048(x14)
400006bc:	00158593          	addi	x11,x11,1
400006c0:	f66592e3          	bne	x11,x6,40000624 <ee_printf+0x330>
400006c4:	00812783          	lw	x15,8(x2)
400006c8:	00c12683          	lw	x13,12(x2)
400006cc:	0107f793          	andi	x15,x15,16
400006d0:	02079663          	bne	x15,x0,400006fc <ee_printf+0x408>
400006d4:	fff68613          	addi	x12,x13,-1
400006d8:	4ad85e63          	bge	x16,x13,40000b94 <ee_printf+0x8a0>
400006dc:	410687b3          	sub	x15,x13,x16
400006e0:	00f507b3          	add	x15,x10,x15
400006e4:	02000713          	addi	x14,x0,32
400006e8:	00150513          	addi	x10,x10,1
400006ec:	fee50fa3          	sb	x14,-1(x10)
400006f0:	fea79ce3          	bne	x15,x10,400006e8 <ee_printf+0x3f4>
400006f4:	40d806b3          	sub	x13,x16,x13
400006f8:	00c686b3          	add	x13,x13,x12
400006fc:	01810613          	addi	x12,x2,24
40000700:	010507b3          	add	x15,x10,x16
40000704:	00050713          	addi	x14,x10,0
40000708:	00064583          	lbu	x11,0(x12)
4000070c:	00170713          	addi	x14,x14,1
40000710:	00160613          	addi	x12,x12,1
40000714:	feb70fa3          	sb	x11,-1(x14)
40000718:	fee798e3          	bne	x15,x14,40000708 <ee_printf+0x414>
4000071c:	44d85863          	bge	x16,x13,40000b6c <ee_printf+0x878>
40000720:	00d50533          	add	x10,x10,x13
40000724:	02000713          	addi	x14,x0,32
40000728:	00178793          	addi	x15,x15,1
4000072c:	fee78fa3          	sb	x14,-1(x15)
40000730:	fea79ce3          	bne	x15,x10,40000728 <ee_printf+0x434>
40000734:	001ac783          	lbu	x15,1(x21)
40000738:	001a8313          	addi	x6,x21,1
4000073c:	000f8a13          	addi	x20,x31,0
40000740:	c40794e3          	bne	x15,x0,40000388 <ee_printf+0x94>
40000744:	c5dff06f          	jal	x0,400003a0 <ee_printf+0xac>
40000748:	0407e793          	ori	x15,x15,64
4000074c:	01000613          	addi	x12,x0,16
40000750:	004a0813          	addi	x16,x20,4
40000754:	000a2583          	lw	x11,0(x20)
40000758:	00080a13          	addi	x20,x16,0
4000075c:	909ff0ef          	jal	x1,40000064 <number>
40000760:	001ac783          	lbu	x15,1(x21)
40000764:	001a8313          	addi	x6,x21,1
40000768:	c20790e3          	bne	x15,x0,40000388 <ee_printf+0x94>
4000076c:	c35ff06f          	jal	x0,400003a0 <ee_printf+0xac>
40000770:	00058a93          	addi	x21,x11,0
40000774:	0107f793          	andi	x15,x15,16
40000778:	004a0613          	addi	x12,x20,4
4000077c:	001a8313          	addi	x6,x21,1
40000780:	2c078a63          	beq	x15,x0,40000a54 <ee_printf+0x760>
40000784:	000a2783          	lw	x15,0(x20)
40000788:	00100593          	addi	x11,x0,1
4000078c:	00150713          	addi	x14,x10,1
40000790:	00f50023          	sb	x15,0(x10)
40000794:	02000793          	addi	x15,x0,32
40000798:	00d50533          	add	x10,x10,x13
4000079c:	40d5d463          	bge	x11,x13,40000ba4 <ee_printf+0x8b0>
400007a0:	00170713          	addi	x14,x14,1
400007a4:	fef70fa3          	sb	x15,-1(x14)
400007a8:	fea71ce3          	bne	x14,x10,400007a0 <ee_printf+0x4ac>
400007ac:	001ac783          	lbu	x15,1(x21)
400007b0:	00060a13          	addi	x20,x12,0
400007b4:	bc079ae3          	bne	x15,x0,40000388 <ee_printf+0x94>
400007b8:	be9ff06f          	jal	x0,400003a0 <ee_printf+0xac>
400007bc:	00058a93          	addi	x21,x11,0
400007c0:	000a2603          	lw	x12,0(x20)
400007c4:	004a0a13          	addi	x20,x20,4
400007c8:	28060063          	beq	x12,x0,40000a48 <ee_printf+0x754>
400007cc:	00064583          	lbu	x11,0(x12)
400007d0:	30058e63          	beq	x11,x0,40000aec <ee_printf+0x7f8>
400007d4:	30070c63          	beq	x14,x0,40000aec <ee_printf+0x7f8>
400007d8:	00060593          	addi	x11,x12,0
400007dc:	00c0006f          	jal	x0,400007e8 <ee_printf+0x4f4>
400007e0:	40e58833          	sub	x16,x11,x14
400007e4:	00c80863          	beq	x16,x12,400007f4 <ee_printf+0x500>
400007e8:	0015c803          	lbu	x16,1(x11)
400007ec:	00158593          	addi	x11,x11,1
400007f0:	fe0818e3          	bne	x16,x0,400007e0 <ee_printf+0x4ec>
400007f4:	0107f713          	andi	x14,x15,16
400007f8:	40c587b3          	sub	x15,x11,x12
400007fc:	28070c63          	beq	x14,x0,40000a94 <ee_printf+0x7a0>
40000800:	3af05c63          	bge	x0,x15,40000bb8 <ee_printf+0x8c4>
40000804:	00f60833          	add	x16,x12,x15
40000808:	00050713          	addi	x14,x10,0
4000080c:	00064583          	lbu	x11,0(x12)
40000810:	00160613          	addi	x12,x12,1
40000814:	00170713          	addi	x14,x14,1
40000818:	feb70fa3          	sb	x11,-1(x14)
4000081c:	ff0618e3          	bne	x12,x16,4000080c <ee_printf+0x518>
40000820:	00f50733          	add	x14,x10,x15
40000824:	40f68533          	sub	x10,x13,x15
40000828:	001a8313          	addi	x6,x21,1
4000082c:	00a70533          	add	x10,x14,x10
40000830:	02000613          	addi	x12,x0,32
40000834:	34d7d863          	bge	x15,x13,40000b84 <ee_printf+0x890>
40000838:	00170713          	addi	x14,x14,1
4000083c:	fec70fa3          	sb	x12,-1(x14)
40000840:	fea71ce3          	bne	x14,x10,40000838 <ee_printf+0x544>
40000844:	001ac783          	lbu	x15,1(x21)
40000848:	b40790e3          	bne	x15,x0,40000388 <ee_printf+0x94>
4000084c:	b55ff06f          	jal	x0,400003a0 <ee_printf+0xac>
40000850:	00058a93          	addi	x21,x11,0
40000854:	fff00613          	addi	x12,x0,-1
40000858:	1ec68263          	beq	x13,x12,40000a3c <ee_printf+0x748>
4000085c:	000a2583          	lw	x11,0(x20)
40000860:	01000613          	addi	x12,x0,16
40000864:	004a0a13          	addi	x20,x20,4
40000868:	ffcff0ef          	jal	x1,40000064 <number>
4000086c:	001ac783          	lbu	x15,1(x21)
40000870:	001a8313          	addi	x6,x21,1
40000874:	b0079ae3          	bne	x15,x0,40000388 <ee_printf+0x94>
40000878:	b29ff06f          	jal	x0,400003a0 <ee_printf+0xac>
4000087c:	00900793          	addi	x15,x0,9
40000880:	000e8893          	addi	x17,x29,0
40000884:	e2c7d0e3          	bge	x15,x12,400006a4 <ee_printf+0x3b0>
40000888:	00a00a13          	addi	x20,x0,10
4000088c:	034647b3          	div	x15,x12,x20
40000890:	00000897          	auipc	x17,0x0
40000894:	39c88893          	addi	x17,x17,924 # 40000c2c <getchar+0x34>
40000898:	42070713          	addi	x14,x14,1056
4000089c:	01010693          	addi	x13,x2,16
400008a0:	00d706b3          	add	x13,x14,x13
400008a4:	00080713          	addi	x14,x16,0
400008a8:	00180813          	addi	x16,x16,1
400008ac:	03466633          	rem	x12,x12,x20
400008b0:	00f88a33          	add	x20,x17,x15
400008b4:	000a4a03          	lbu	x20,0(x20)
400008b8:	bf468423          	sb	x20,-1048(x13)
400008bc:	de9ff06f          	jal	x0,400006a4 <ee_printf+0x3b0>
400008c0:	00000713          	addi	x14,x0,0
400008c4:	00070313          	addi	x6,x14,0
400008c8:	00231713          	slli	x14,x6,0x2
400008cc:	00670733          	add	x14,x14,x6
400008d0:	00180813          	addi	x16,x16,1
400008d4:	00171713          	slli	x14,x14,0x1
400008d8:	00c70733          	add	x14,x14,x12
400008dc:	00084603          	lbu	x12,0(x16)
400008e0:	fd070313          	addi	x6,x14,-48
400008e4:	fd060593          	addi	x11,x12,-48
400008e8:	0ff5f593          	andi	x11,x11,255
400008ec:	fcb8fee3          	bgeu	x17,x11,400008c8 <ee_printf+0x5d4>
400008f0:	00030713          	addi	x14,x6,0
400008f4:	00080593          	addi	x11,x16,0
400008f8:	b2dff06f          	jal	x0,40000424 <ee_printf+0x130>
400008fc:	000a2703          	lw	x14,0(x20)
40000900:	00258813          	addi	x16,x11,2
40000904:	0025c603          	lbu	x12,2(x11)
40000908:	fff74593          	xori	x11,x14,-1
4000090c:	41f5d593          	srai	x11,x11,0x1f
40000910:	00b77733          	and	x14,x14,x11
40000914:	004a0a13          	addi	x20,x20,4
40000918:	00080593          	addi	x11,x16,0
4000091c:	b09ff06f          	jal	x0,40000424 <ee_printf+0x130>
40000920:	0407f713          	andi	x14,x15,64
40000924:	00000317          	auipc	x6,0x0
40000928:	30830313          	addi	x6,x6,776 # 40000c2c <getchar+0x34>
4000092c:	00070663          	beq	x14,x0,40000938 <ee_printf+0x644>
40000930:	00000317          	auipc	x6,0x0
40000934:	32430313          	addi	x6,x6,804 # 40000c54 <getchar+0x5c>
40000938:	000a2e83          	lw	x29,0(x20)
4000093c:	00000613          	addi	x12,x0,0
40000940:	00000893          	addi	x17,x0,0
40000944:	00600e13          	addi	x28,x0,6
40000948:	03a00f13          	addi	x30,x0,58
4000094c:	0140006f          	jal	x0,40000960 <ee_printf+0x66c>
40000950:	42288713          	addi	x14,x17,1058
40000954:	00770833          	add	x16,x14,x7
40000958:	00388893          	addi	x17,x17,3
4000095c:	bfe80423          	sb	x30,-1048(x16)
40000960:	00ce8733          	add	x14,x29,x12
40000964:	00074703          	lbu	x14,0(x14)
40000968:	01010393          	addi	x7,x2,16
4000096c:	00160613          	addi	x12,x12,1
40000970:	00475813          	srli	x16,x14,0x4
40000974:	00f77713          	andi	x14,x14,15
40000978:	00e30733          	add	x14,x6,x14
4000097c:	01030833          	add	x16,x6,x16
40000980:	00074f83          	lbu	x31,0(x14)
40000984:	00084283          	lbu	x5,0(x16)
40000988:	42088713          	addi	x14,x17,1056
4000098c:	00770733          	add	x14,x14,x7
40000990:	be570423          	sb	x5,-1048(x14)
40000994:	bff704a3          	sb	x31,-1047(x14)
40000998:	fbc61ce3          	bne	x12,x28,40000950 <ee_printf+0x65c>
4000099c:	0107f793          	andi	x15,x15,16
400009a0:	02079863          	bne	x15,x0,400009d0 <ee_printf+0x6dc>
400009a4:	01100793          	addi	x15,x0,17
400009a8:	fff68613          	addi	x12,x13,-1
400009ac:	20d7de63          	bge	x15,x13,40000bc8 <ee_printf+0x8d4>
400009b0:	fef68793          	addi	x15,x13,-17
400009b4:	00f507b3          	add	x15,x10,x15
400009b8:	02000713          	addi	x14,x0,32
400009bc:	00150513          	addi	x10,x10,1
400009c0:	fee50fa3          	sb	x14,-1(x10)
400009c4:	fea79ce3          	bne	x15,x10,400009bc <ee_printf+0x6c8>
400009c8:	40d60633          	sub	x12,x12,x13
400009cc:	01160693          	addi	x13,x12,17
400009d0:	01810613          	addi	x12,x2,24
400009d4:	01150793          	addi	x15,x10,17
400009d8:	00050713          	addi	x14,x10,0
400009dc:	00064803          	lbu	x16,0(x12)
400009e0:	00170713          	addi	x14,x14,1
400009e4:	00160613          	addi	x12,x12,1
400009e8:	ff070fa3          	sb	x16,-1(x14)
400009ec:	fef718e3          	bne	x14,x15,400009dc <ee_printf+0x6e8>
400009f0:	01100613          	addi	x12,x0,17
400009f4:	1ad65463          	bge	x12,x13,40000b9c <ee_printf+0x8a8>
400009f8:	00d50533          	add	x10,x10,x13
400009fc:	02000713          	addi	x14,x0,32
40000a00:	00178793          	addi	x15,x15,1
40000a04:	fee78fa3          	sb	x14,-1(x15)
40000a08:	fef51ce3          	bne	x10,x15,40000a00 <ee_printf+0x70c>
40000a0c:	0025c783          	lbu	x15,2(x11)
40000a10:	004a0a13          	addi	x20,x20,4
40000a14:	00258313          	addi	x6,x11,2
40000a18:	960798e3          	bne	x15,x0,40000388 <ee_printf+0x94>
40000a1c:	985ff06f          	jal	x0,400003a0 <ee_printf+0xac>
40000a20:	000ac783          	lbu	x15,0(x21)
40000a24:	00f50023          	sb	x15,0(x10)
40000a28:	001ac783          	lbu	x15,1(x21)
40000a2c:	00150513          	addi	x10,x10,1
40000a30:	001a8313          	addi	x6,x21,1
40000a34:	94079ae3          	bne	x15,x0,40000388 <ee_printf+0x94>
40000a38:	969ff06f          	jal	x0,400003a0 <ee_printf+0xac>
40000a3c:	0017e793          	ori	x15,x15,1
40000a40:	00800693          	addi	x13,x0,8
40000a44:	e19ff06f          	jal	x0,4000085c <ee_printf+0x568>
40000a48:	00000617          	auipc	x12,0x0
40000a4c:	23460613          	addi	x12,x12,564 # 40000c7c <getchar+0x84>
40000a50:	d85ff06f          	jal	x0,400007d4 <ee_printf+0x4e0>
40000a54:	00100793          	addi	x15,x0,1
40000a58:	0ed7dc63          	bge	x15,x13,40000b50 <ee_printf+0x85c>
40000a5c:	fff68793          	addi	x15,x13,-1
40000a60:	00f507b3          	add	x15,x10,x15
40000a64:	02000713          	addi	x14,x0,32
40000a68:	00150513          	addi	x10,x10,1
40000a6c:	fee50fa3          	sb	x14,-1(x10)
40000a70:	fef51ce3          	bne	x10,x15,40000a68 <ee_printf+0x774>
40000a74:	00000693          	addi	x13,x0,0
40000a78:	d0dff06f          	jal	x0,40000784 <ee_printf+0x490>
40000a7c:	0027e793          	ori	x15,x15,2
40000a80:	00a00613          	addi	x12,x0,10
40000a84:	ccdff06f          	jal	x0,40000750 <ee_printf+0x45c>
40000a88:	03010993          	addi	x19,x2,48
40000a8c:	00098513          	addi	x10,x19,0
40000a90:	911ff06f          	jal	x0,400003a0 <ee_printf+0xac>
40000a94:	fff68813          	addi	x16,x13,-1
40000a98:	12d7d463          	bge	x15,x13,40000bc0 <ee_printf+0x8cc>
40000a9c:	40f68733          	sub	x14,x13,x15
40000aa0:	00e50733          	add	x14,x10,x14
40000aa4:	02000593          	addi	x11,x0,32
40000aa8:	00150513          	addi	x10,x10,1
40000aac:	feb50fa3          	sb	x11,-1(x10)
40000ab0:	fee51ce3          	bne	x10,x14,40000aa8 <ee_printf+0x7b4>
40000ab4:	40d786b3          	sub	x13,x15,x13
40000ab8:	010686b3          	add	x13,x13,x16
40000abc:	d45ff06f          	jal	x0,40000800 <ee_printf+0x50c>
40000ac0:	0027e793          	ori	x15,x15,2
40000ac4:	004a0813          	addi	x16,x20,4
40000ac8:	00058a93          	addi	x21,x11,0
40000acc:	00a00613          	addi	x12,x0,10
40000ad0:	c85ff06f          	jal	x0,40000754 <ee_printf+0x460>
40000ad4:	00800613          	addi	x12,x0,8
40000ad8:	c79ff06f          	jal	x0,40000750 <ee_printf+0x45c>
40000adc:	00a00613          	addi	x12,x0,10
40000ae0:	c71ff06f          	jal	x0,40000750 <ee_printf+0x45c>
40000ae4:	00058a93          	addi	x21,x11,0
40000ae8:	addff06f          	jal	x0,400005c4 <ee_printf+0x2d0>
40000aec:	0107f793          	andi	x15,x15,16
40000af0:	08078263          	beq	x15,x0,40000b74 <ee_printf+0x880>
40000af4:	00050713          	addi	x14,x10,0
40000af8:	00000793          	addi	x15,x0,0
40000afc:	d29ff06f          	jal	x0,40000824 <ee_printf+0x530>
40000b00:	0407e793          	ori	x15,x15,64
40000b04:	00058a93          	addi	x21,x11,0
40000b08:	abdff06f          	jal	x0,400005c4 <ee_printf+0x2d0>
40000b0c:	004a0813          	addi	x16,x20,4
40000b10:	00058a93          	addi	x21,x11,0
40000b14:	00a00613          	addi	x12,x0,10
40000b18:	c3dff06f          	jal	x0,40000754 <ee_printf+0x460>
40000b1c:	0407e793          	ori	x15,x15,64
40000b20:	004a0813          	addi	x16,x20,4
40000b24:	00058a93          	addi	x21,x11,0
40000b28:	01000613          	addi	x12,x0,16
40000b2c:	c29ff06f          	jal	x0,40000754 <ee_printf+0x460>
40000b30:	004a0813          	addi	x16,x20,4
40000b34:	00058a93          	addi	x21,x11,0
40000b38:	01000613          	addi	x12,x0,16
40000b3c:	c19ff06f          	jal	x0,40000754 <ee_printf+0x460>
40000b40:	004a0813          	addi	x16,x20,4
40000b44:	00058a93          	addi	x21,x11,0
40000b48:	00800613          	addi	x12,x0,8
40000b4c:	c09ff06f          	jal	x0,40000754 <ee_printf+0x460>
40000b50:	000a2783          	lw	x15,0(x20)
40000b54:	00150513          	addi	x10,x10,1
40000b58:	00060a13          	addi	x20,x12,0
40000b5c:	fef50fa3          	sb	x15,-1(x10)
40000b60:	001ac783          	lbu	x15,1(x21)
40000b64:	820792e3          	bne	x15,x0,40000388 <ee_printf+0x94>
40000b68:	839ff06f          	jal	x0,400003a0 <ee_printf+0xac>
40000b6c:	00078513          	addi	x10,x15,0
40000b70:	bc5ff06f          	jal	x0,40000734 <ee_printf+0x440>
40000b74:	fff68813          	addi	x16,x13,-1
40000b78:	f2d042e3          	blt	x0,x13,40000a9c <ee_printf+0x7a8>
40000b7c:	001a8313          	addi	x6,x21,1
40000b80:	00050713          	addi	x14,x10,0
40000b84:	001ac783          	lbu	x15,1(x21)
40000b88:	00070513          	addi	x10,x14,0
40000b8c:	fe079e63          	bne	x15,x0,40000388 <ee_printf+0x94>
40000b90:	811ff06f          	jal	x0,400003a0 <ee_printf+0xac>
40000b94:	00060693          	addi	x13,x12,0
40000b98:	b65ff06f          	jal	x0,400006fc <ee_printf+0x408>
40000b9c:	00070513          	addi	x10,x14,0
40000ba0:	e6dff06f          	jal	x0,40000a0c <ee_printf+0x718>
40000ba4:	001ac783          	lbu	x15,1(x21)
40000ba8:	00060a13          	addi	x20,x12,0
40000bac:	00070513          	addi	x10,x14,0
40000bb0:	fc079c63          	bne	x15,x0,40000388 <ee_printf+0x94>
40000bb4:	fecff06f          	jal	x0,400003a0 <ee_printf+0xac>
40000bb8:	00050713          	addi	x14,x10,0
40000bbc:	c69ff06f          	jal	x0,40000824 <ee_printf+0x530>
40000bc0:	00080693          	addi	x13,x16,0
40000bc4:	c3dff06f          	jal	x0,40000800 <ee_printf+0x50c>
40000bc8:	00060693          	addi	x13,x12,0
40000bcc:	e05ff06f          	jal	x0,400009d0 <ee_printf+0x6dc>

40000bd0 <init_uart>:
40000bd0:	200007b7          	lui	x15,0x20000
40000bd4:	0007a703          	lw	x14,0(x15) # 20000000 <main-0x20000000>
40000bd8:	00176713          	ori	x14,x14,1
40000bdc:	00e7a023          	sw	x14,0(x15)
40000be0:	0007a703          	lw	x14,0(x15)
40000be4:	00276713          	ori	x14,x14,2
40000be8:	00e7a023          	sw	x14,0(x15)
40000bec:	43d00713          	addi	x14,x0,1085
40000bf0:	00e79123          	sh	x14,2(x15)
40000bf4:	00008067          	jalr	x0,0(x1)

40000bf8 <getchar>:
40000bf8:	20000737          	lui	x14,0x20000
40000bfc:	00472783          	lw	x15,4(x14) # 20000004 <main-0x1ffffffc>
40000c00:	0037d793          	srli	x15,x15,0x3
40000c04:	0017f793          	andi	x15,x15,1
40000c08:	fe079ae3          	bne	x15,x0,40000bfc <getchar+0x4>
40000c0c:	00874503          	lbu	x10,8(x14)
40000c10:	00008067          	jalr	x0,0(x1)
